Component: ARM Compiler 5.05 update 1 (build 106) Tool: armlink [4d0efa]

==============================================================================

Section Cross References

    stm32f4xx_it.o(.text) refers to dacmodule.o(.text) for ProcessDACFIFO
    stm32f4xx_it.o(.text) refers to dacmodule.o(.bss) for g_hTIMDAC
    main.o(.text) refers to stm32f4xx_hal_rcc.o(.text) for HAL_RCC_OscConfig
    main.o(.text) refers to stm32f4xx_hal_cortex.o(.text) for HAL_SYSTICK_Config
    main.o(.text) refers to stm32f4xx_hal.o(.text) for HAL_Init
    main.o(.text) refers to tcpthread.o(.text) for TCPLoop
    main.o(.text) refers to rt_cmsis.o(i.osKernelStart) for osKernelStart
    stm32f4xx_hal_msp.o(.text) refers to dacmodule.o(.text) for InitDAC
    stm32f4xx_hal_msp.o(.text) refers to gpiomodule.o(.text) for InitGPIO
    dacfifo.o(.text) refers to memcpya.o(.text) for __aeabi_memcpy
    dacfifo.o(.text) refers to dacfifo.o(.bss) for dacfifo
    packetassembler.o(.text) refers to dacfifo.o(.text) for InitDACFIFO
    gpiomodule.o(.text) refers to memseta.o(.text) for __aeabi_memclr4
    gpiomodule.o(.text) refers to stm32f4xx_hal_gpio.o(.text) for HAL_GPIO_Init
    dactimer.o(.text) refers to dacmodule.o(.text) for ProcessDACFIFO
    dactimer.o(.text) refers to rt_cmsis.o(i.osTimerCreate) for osTimerCreate
    dactimer.o(.text) refers to rt_cmsis.o(i.osTimerStart) for osTimerStart
    dactimer.o(.text) refers to dactimer.o(.data) for exec
    dactimer.o(.text) refers to dactimer.o(.constdata) for os_timer_def_TimerDAC
    dactimer.o(.constdata) refers to dactimer.o(.text) for TimerDAC_Callback
    dactimer.o(.constdata) refers to dactimer.o(.bss) for os_timer_cb_TimerDAC
    dacmodule.o(.text) refers to memseta.o(.text) for __aeabi_memclr4
    dacmodule.o(.text) refers to stm32f4xx_hal_gpio.o(.text) for HAL_GPIO_Init
    dacmodule.o(.text) refers to stm32f4xx_hal_dac.o(.text) for HAL_DAC_Init
    dacmodule.o(.text) refers to stm32f4xx_hal_cortex.o(.text) for HAL_NVIC_EnableIRQ
    dacmodule.o(.text) refers to memcpya.o(.text) for __aeabi_memcpy4
    dacmodule.o(.text) refers to stm32f4xx_hal_tim.o(.text) for HAL_TIM_Base_Init
    dacmodule.o(.text) refers to dacfifo.o(.text) for GetDataFastFromDACFIFO
    dacmodule.o(.text) refers to cnclerp.o(.text) for UpdateCNCLerp
    dacmodule.o(.text) refers to dacmodule.o(.bss) for g_hDAC
    dacmodule.o(.text) refers to dacmodule.o(.data) for bUpdate
    dacmodule.o(.text) refers to tcpthread.o(.bss) for fifo
    tcpthread.o(.text) refers to rt_cmsis.o(i.osThreadCreate) for osThreadCreate
    tcpthread.o(.text) refers to net_tcp.o(i.tcp_check_send) for tcp_check_send
    tcpthread.o(.text) refers to net_tcp.o(i.tcp_max_data_size) for tcp_max_data_size
    tcpthread.o(.text) refers to net_tcp.o(i.tcp_get_buf) for tcp_get_buf
    tcpthread.o(.text) refers to memcpya.o(.text) for __aeabi_memcpy
    tcpthread.o(.text) refers to net_tcp.o(i.tcp_send) for tcp_send
    tcpthread.o(.text) refers to stm32f4xx_hal_gpio.o(.text) for HAL_GPIO_WritePin
    tcpthread.o(.text) refers to stm32f4xx_hal_tim.o(.text) for HAL_TIM_Base_Stop_IT
    tcpthread.o(.text) refers to dacfifo.o(.text) for PutDataIntoDACFIFO
    tcpthread.o(.text) refers to net_sys.o(i.net_initialize) for net_initialize
    tcpthread.o(.text) refers to net_tcp.o(i.tcp_get_socket) for tcp_get_socket
    tcpthread.o(.text) refers to net_tcp.o(i.tcp_listen) for tcp_listen
    tcpthread.o(.text) refers to net_sys.o(i.net_main) for net_main
    tcpthread.o(.text) refers to tcpthread.o(.constdata) for os_thread_def_Thread
    tcpthread.o(.text) refers to tcpthread.o(.data) for tid_TCPThread
    tcpthread.o(.text) refers to dacmodule.o(.data) for startLerp
    tcpthread.o(.text) refers to dacmodule.o(.bss) for g_hTIMDAC
    tcpthread.o(.text) refers to tcpthread.o(.bss) for fifo
    tcpthread.o(.constdata) refers to tcpthread.o(.text) for Thread
    cnclerp.o(.text) refers to stm32f4xx_hal_gpio.o(.text) for HAL_GPIO_WritePin
    buttons_f4discovery.o(.text) refers to stm32f4xx_hal_gpio.o(.text) for HAL_GPIO_Init
    led_f4discovery.o(.text) refers to stm32f4xx_hal_gpio.o(.text) for HAL_GPIO_Init
    led_f4discovery.o(.text) refers to led_f4discovery.o(.constdata) for LED_PIN
    rtx_conf_cm.o(.ARM.Collect$$$$000000FF) refers to rt_cmsis.o(i.osKernelInitialize) for osKernelInitialize
    rtx_conf_cm.o(.ARM.Collect$$$$000000FF) refers to rt_cmsis.o(i.osThreadCreate) for osThreadCreate
    rtx_conf_cm.o(.ARM.Collect$$$$000000FF) refers to rt_cmsis.o(i.osKernelStart) for osKernelStart
    rtx_conf_cm.o(.ARM.Collect$$$$000000FF) refers to rtx_conf_cm.o(.data) for .data
    rtx_conf_cm.o(.constdata) refers to rt_cmsis.o(i.osTimerThread) for osTimerThread
    rtx_conf_cm.o(.constdata) refers to rtx_conf_cm.o(.bss) for os_messageQ_q_osTimerMessageQ
    rtx_conf_cm.o(.data) refers to main.o(.text) for main
    phy_lan8720.o(.text) refers to phy_lan8720.o(.constdata) for DriverVersion
    phy_lan8720.o(.text) refers to phy_lan8720.o(.data) for reg_rd
    phy_lan8720.o(.constdata) refers to phy_lan8720.o(.text) for GetVersion
    emac_stm32f4xx.o(.text) refers to stm32f4xx_hal_gpio.o(.text) for HAL_GPIO_Init
    emac_stm32f4xx.o(.text) refers to stm32f4xx_hal_rcc.o(.text) for HAL_RCC_GetHCLKFreq
    emac_stm32f4xx.o(.text) refers to emac_stm32f4xx.o(.bss) for rx_desc
    emac_stm32f4xx.o(.text) refers to emac_stm32f4xx.o(.constdata) for DriverVersion
    emac_stm32f4xx.o(.text) refers to stm32f4xx_hal.o(.text) for HAL_GetTick
    emac_stm32f4xx.o(.constdata) refers to emac_stm32f4xx.o(.text) for GetVersion
    otg_fs_stm32f4xx.o(.text) refers to usbd_fs_stm32f4xx.o(.text) for USBD_FS_IRQ
    otg_fs_stm32f4xx.o(.text) refers to stm32f4xx_hal_gpio.o(.text) for HAL_GPIO_Init
    otg_fs_stm32f4xx.o(.text) refers to otg_fs_stm32f4xx.o(.data) for otg_fs_role
    usart_stm32f4xx.o(.text) refers to memseta.o(.text) for __aeabi_memclr4
    usart_stm32f4xx.o(.text) refers to stm32f4xx_hal_gpio.o(.text) for HAL_GPIO_DeInit
    usart_stm32f4xx.o(.text) refers to stm32f4xx_hal_cortex.o(.text) for HAL_NVIC_DisableIRQ
    usart_stm32f4xx.o(.text) refers to usart_stm32f4xx.o(.constdata) for usart_driver_version
    usart_stm32f4xx.o(.text) refers to stm32f4xx_hal_dma.o(.text) for HAL_DMA_Abort
    usart_stm32f4xx.o(.constdata) refers to stm32f4xx_hal_rcc.o(.text) for HAL_RCC_GetPCLK2Freq
    usart_stm32f4xx.o(.constdata) refers to usart_stm32f4xx.o(.bss) for USART6_Info
    usart_stm32f4xx.o(.constdata) refers to usart_stm32f4xx.o(.text) for USARTx_GetVersion
    usbd_fs_stm32f4xx.o(.text) refers to memseta.o(.text) for __aeabi_memclr4
    usbd_fs_stm32f4xx.o(.text) refers to otg_fs_stm32f4xx.o(.text) for OTG_FS_PinsConfigure
    usbd_fs_stm32f4xx.o(.text) refers to usbd_fs_stm32f4xx.o(.data) for setup_packet
    usbd_fs_stm32f4xx.o(.text) refers to usbd_fs_stm32f4xx.o(.bss) for ep
    usbd_fs_stm32f4xx.o(.text) refers to otg_fs_stm32f4xx.o(.data) for otg_fs_state
    usbd_fs_stm32f4xx.o(.text) refers to usbd_fs_stm32f4xx.o(.constdata) for usbd_driver_version
    usbd_fs_stm32f4xx.o(.text) refers to rt_cmsis.o(i.osDelay) for osDelay
    usbd_fs_stm32f4xx.o(.constdata) refers to usbd_fs_stm32f4xx.o(.text) for USBD_GetVersion
    stm32f4xx_hal.o(.text) refers to stm32f4xx_hal_rcc.o(.text) for HAL_RCC_GetHCLKFreq
    stm32f4xx_hal.o(.text) refers to stm32f4xx_hal_cortex.o(.text) for HAL_SYSTICK_Config
    stm32f4xx_hal.o(.text) refers to stm32f4xx_hal_msp.o(.text) for HAL_MspInit
    stm32f4xx_hal.o(.text) refers to stm32f4xx_hal.o(.data) for uwTick
    stm32f4xx_hal_dac.o(.text) refers to stm32f4xx_hal_dma.o(.text) for HAL_DMA_Start_IT
    stm32f4xx_hal_dac.o(.text) refers to stm32f4xx_hal_dac_ex.o(.text) for HAL_DACEx_DMAUnderrunCallbackCh2
    stm32f4xx_hal_dma.o(.text) refers to stm32f4xx_hal.o(.text) for HAL_GetTick
    stm32f4xx_hal_pwr_ex.o(.text) refers to stm32f4xx_hal.o(.text) for HAL_GetTick
    stm32f4xx_hal_rcc.o(.text) refers to stm32f4xx_hal.o(.text) for HAL_GetTick
    stm32f4xx_hal_rcc.o(.text) refers to stm32f4xx_hal_gpio.o(.text) for HAL_GPIO_Init
    stm32f4xx_hal_rcc.o(.text) refers to stm32f4xx_hal_rcc.o(.constdata) for APBAHBPrescTable
    stm32f4xx_hal_rcc.o(.text) refers to system_stm32f4xx.o(.data) for SystemCoreClock
    stm32f4xx_hal_rcc_ex.o(.text) refers to stm32f4xx_hal.o(.text) for HAL_GetTick
    stm32f4xx_hal_tim.o(.text) refers to stm32f4xx_hal_dma.o(.text) for HAL_DMA_Start_IT
    stm32f4xx_hal_tim.o(.text) refers to stm32f4xx_hal_tim_ex.o(.text) for HAL_TIMEx_BreakCallback
    stm32f4xx_hal_tim_ex.o(.text) refers to stm32f4xx_hal_tim.o(.text) for TIM_Base_SetConfig
    stm32f4xx_hal_tim_ex.o(.text) refers to stm32f4xx_hal_dma.o(.text) for HAL_DMA_Start_IT
    stm32f4xx_hal_uart.o(.text) refers to stm32f4xx_hal_rcc.o(.text) for HAL_RCC_GetPCLK2Freq
    stm32f4xx_hal_uart.o(.text) refers to stm32f4xx_hal.o(.text) for HAL_GetTick
    stm32f4xx_hal_uart.o(.text) refers to stm32f4xx_hal_dma.o(.text) for HAL_DMA_Start_IT
    stm32f4xx_hal_usart.o(.text) refers to stm32f4xx_hal_rcc.o(.text) for HAL_RCC_GetPCLK2Freq
    stm32f4xx_hal_usart.o(.text) refers to stm32f4xx_hal.o(.text) for HAL_GetTick
    stm32f4xx_hal_usart.o(.text) refers to stm32f4xx_hal_dma.o(.text) for HAL_DMA_Start_IT
    startup_stm32f407xx.o(RESET) refers to startup_stm32f407xx.o(STACK) for __initial_sp
    startup_stm32f407xx.o(RESET) refers to startup_stm32f407xx.o(.text) for Reset_Handler
    startup_stm32f407xx.o(RESET) refers to stm32f4xx_it.o(.text) for NMI_Handler
    startup_stm32f407xx.o(RESET) refers to hal_cm4.o(.emb_text) for SVC_Handler
    startup_stm32f407xx.o(RESET) refers to emac_stm32f4xx.o(.text) for ETH_IRQHandler
    startup_stm32f407xx.o(RESET) refers to otg_fs_stm32f4xx.o(.text) for OTG_FS_IRQHandler
    startup_stm32f407xx.o(RESET) refers to usart_stm32f4xx.o(.text) for USART6_IRQHandler
    startup_stm32f407xx.o(.text) refers to system_stm32f4xx.o(.text) for SystemInit
    startup_stm32f407xx.o(.text) refers to entry.o(.ARM.Collect$$$$00000000) for __main
    system_stm32f4xx.o(.text) refers to system_stm32f4xx.o(.data) for SystemCoreClock
    net_config.o(.text) refers to net_eth.o(i.eth_init_link) for eth_init_link
    net_config.o(.text) refers to net_ip.o(i.ip_localhost_init) for ip_localhost_init
    net_config.o(.text) refers to net_icmp.o(i.icmp_service_init) for icmp_service_init
    net_config.o(.text) refers to net_tcp.o(i.tcp_socket_init) for tcp_socket_init
    net_config.o(.text) refers to net_arp.o(i.arp_notify) for arp_notify
    net_config.o(.text) refers to net_eth.o(i.eth_run_link) for eth_run_link
    net_config.o(.text) refers to net_ip.o(i.ip_localhost_run) for ip_localhost_run
    net_config.o(.text) refers to net_icmp.o(i.icmp_service_run) for icmp_service_run
    net_config.o(.text) refers to net_tcp.o(i.tcp_socket_poll) for tcp_socket_poll
    net_config.o(.text) refers to strlen.o(.text) for strlen
    net_config.o(.text) refers to usbd_cdc.o(i.USBD_CDC_ACM_WriteData) for USBD_CDC_ACM_WriteData
    net_config.o(.constdata) refers to net_config.o(.bss) for mem_pool
    net_config.o(.constdata) refers to net_config.o(.data) for lhost_name
    net_config.o(.constdata) refers to emac_stm32f4xx.o(.constdata) for Driver_ETH_MAC0
    net_config.o(.constdata) refers to phy_lan8720.o(.constdata) for Driver_ETH_PHY0
    usbd_config_0.o(.text) refers to usbd_core.o(i.USBD_SignalDeviceEvent) for USBD_SignalDeviceEvent
    usbd_config_0.o(.text) refers to usbd_core.o(i.USBD_SignalEndpointEvent) for USBD_SignalEndpointEvent
    usbd_config_0.o(.text) refers to usbd_cdc.o(i.USBD_CDC_ClassInitialize) for USBD_CDC_ClassInitialize
    usbd_config_0.o(.text) refers to usbd_cdc.o(i.USBD_CDC_ClassUninitialize) for USBD_CDC_ClassUninitialize
    usbd_config_0.o(.text) refers to usbd_cdc.o(i.USBD_CDC_EventReset) for USBD_CDC_EventReset
    usbd_config_0.o(.text) refers to usbd_cdc.o(i.USBD_CDC_EventEndpointStart) for USBD_CDC_EventEndpointStart
    usbd_config_0.o(.text) refers to usbd_config_0.o(.constdata) for .constdata
    usbd_config_0.o(.constdata) refers to usbd_core.o(i.USBD0_CoreThread) for USBD0_CoreThread
    usbd_config_0.o(.constdata) refers to usbd_fs_stm32f4xx.o(.constdata) for Driver_USBD0
    usbd_config_0.o(.constdata) refers to usbd_config_0.o(.data) for usbd0_alt_setting
    usbd_config_0.o(.constdata) refers to usbd_config_0.o(.bss) for usbd0_data
    usbd_config_0.o(.constdata) refers to usbd_cdc.o(i.USBD_CDC0_Int_Thread) for USBD_CDC0_Int_Thread
    usbd_config_0.o(.constdata) refers to usbd_cdc.o(i.USBD_CDC0_Bulk_Thread) for USBD_CDC0_Bulk_Thread
    usbd_config_0.o(.constdata) refers to usbd_config_0.o(.text) for USBD0_SignalDeviceEvent
    usbd_config_0.o(.constdata) refers to usbd_user_cdc_0.o(.text) for USBD_CDC0_ACM_Initialize
    usbd_config_0.o(.data) refers to usbd_config_0.o(.constdata) for usbd0_ep0_descriptor
    rt_cmsis.o(i.isrMessageGet) refers to rt_mailbox.o(i.isr_mbx_receive) for isr_mbx_receive
    rt_cmsis.o(i.isrMessagePut) refers to rt_mailbox.o(i.rt_mbx_check) for rt_mbx_check
    rt_cmsis.o(i.isrMessagePut) refers to rt_mailbox.o(i.isr_mbx_send) for isr_mbx_send
    rt_cmsis.o(i.isrSemaphoreRelease) refers to rt_cmsis.o(i.rt_id2obj) for rt_id2obj
    rt_cmsis.o(i.isrSemaphoreRelease) refers to rt_semaphore.o(i.isr_sem_send) for isr_sem_send
    rt_cmsis.o(i.isrSignalSet) refers to rt_cmsis.o(i.rt_tid2ptcb) for rt_tid2ptcb
    rt_cmsis.o(i.isrSignalSet) refers to rt_event.o(i.isr_evt_set) for isr_evt_set
    rt_cmsis.o(i.osDelay) refers to rt_cmsis.o(i.svcDelay) for svcDelay
    rt_cmsis.o(i.osKernelInitialize) refers to rt_cmsis.o(i.svcKernelInitialize) for svcKernelInitialize
    rt_cmsis.o(i.osKernelRunning) refers to rt_cmsis.o(i.svcKernelRunning) for svcKernelRunning
    rt_cmsis.o(i.osKernelRunning) refers to rt_cmsis.o(.data) for .data
    rt_cmsis.o(i.osKernelStart) refers to rtx_conf_cm.o(.constdata) for os_flags
    rt_cmsis.o(i.osKernelStart) refers to rt_cmsis.o(i.svcKernelStart) for svcKernelStart
    rt_cmsis.o(i.osKernelSysTick) refers to rt_cmsis.o(i.svcKernelSysTick) for svcKernelSysTick
    rt_cmsis.o(i.osMailAlloc) refers to rt_cmsis.o(i.sysMailAlloc) for sysMailAlloc
    rt_cmsis.o(i.osMailCAlloc) refers to rt_cmsis.o(i.sysMailAlloc) for sysMailAlloc
    rt_cmsis.o(i.osMailCreate) refers to rt_cmsis.o(i.svcMailCreate) for svcMailCreate
    rt_cmsis.o(i.osMailCreate) refers to rt_cmsis.o(.data) for .data
    rt_cmsis.o(i.osMailFree) refers to rt_cmsis.o(i.sysMailFree) for sysMailFree
    rt_cmsis.o(i.osMailGet) refers to rt_cmsis.o(i.osMessageGet) for osMessageGet
    rt_cmsis.o(i.osMailPut) refers to rt_cmsis.o(i.osMessagePut) for osMessagePut
    rt_cmsis.o(i.osMessageCreate) refers to rt_cmsis.o(i.svcMessageCreate) for svcMessageCreate
    rt_cmsis.o(i.osMessageCreate) refers to rt_cmsis.o(.data) for .data
    rt_cmsis.o(i.osMessageGet) refers to rt_cmsis.o(i.isrMessageGet) for isrMessageGet
    rt_cmsis.o(i.osMessageGet) refers to rt_cmsis.o(i.svcMessageGet) for svcMessageGet
    rt_cmsis.o(i.osMessagePut) refers to rt_cmsis.o(i.isrMessagePut) for isrMessagePut
    rt_cmsis.o(i.osMessagePut) refers to rt_cmsis.o(i.svcMessagePut) for svcMessagePut
    rt_cmsis.o(i.osMutexCreate) refers to rt_cmsis.o(i.svcMutexCreate) for svcMutexCreate
    rt_cmsis.o(i.osMutexCreate) refers to rt_cmsis.o(.data) for .data
    rt_cmsis.o(i.osMutexDelete) refers to rt_cmsis.o(i.svcMutexDelete) for svcMutexDelete
    rt_cmsis.o(i.osMutexRelease) refers to rt_cmsis.o(i.svcMutexRelease) for svcMutexRelease
    rt_cmsis.o(i.osMutexWait) refers to rt_cmsis.o(i.svcMutexWait) for svcMutexWait
    rt_cmsis.o(i.osPoolAlloc) refers to rt_cmsis.o(i.sysPoolAlloc) for sysPoolAlloc
    rt_cmsis.o(i.osPoolCAlloc) refers to rt_cmsis.o(i.sysPoolAlloc) for sysPoolAlloc
    rt_cmsis.o(i.osPoolCreate) refers to rt_cmsis.o(i.svcPoolCreate) for svcPoolCreate
    rt_cmsis.o(i.osPoolCreate) refers to rt_cmsis.o(.data) for .data
    rt_cmsis.o(i.osPoolFree) refers to rt_cmsis.o(i.sysPoolFree) for sysPoolFree
    rt_cmsis.o(i.osSemaphoreCreate) refers to rt_cmsis.o(i.svcSemaphoreCreate) for svcSemaphoreCreate
    rt_cmsis.o(i.osSemaphoreCreate) refers to rt_cmsis.o(.data) for .data
    rt_cmsis.o(i.osSemaphoreDelete) refers to rt_cmsis.o(i.svcSemaphoreDelete) for svcSemaphoreDelete
    rt_cmsis.o(i.osSemaphoreRelease) refers to rt_cmsis.o(i.isrSemaphoreRelease) for isrSemaphoreRelease
    rt_cmsis.o(i.osSemaphoreRelease) refers to rt_cmsis.o(i.svcSemaphoreRelease) for svcSemaphoreRelease
    rt_cmsis.o(i.osSemaphoreWait) refers to rt_cmsis.o(i.svcSemaphoreWait) for svcSemaphoreWait
    rt_cmsis.o(i.osSignalClear) refers to rt_cmsis.o(i.svcSignalClear) for svcSignalClear
    rt_cmsis.o(i.osSignalSet) refers to rt_cmsis.o(i.isrSignalSet) for isrSignalSet
    rt_cmsis.o(i.osSignalSet) refers to rt_cmsis.o(i.svcSignalSet) for svcSignalSet
    rt_cmsis.o(i.osSignalWait) refers to rt_cmsis.o(i.svcSignalWait) for svcSignalWait
    rt_cmsis.o(i.osThreadCreate) refers to rt_cmsis.o(i.svcThreadCreate) for svcThreadCreate
    rt_cmsis.o(i.osThreadCreate) refers to rt_cmsis.o(.data) for .data
    rt_cmsis.o(i.osThreadExit) refers to rt_cmsis.o(i.svcThreadGetId) for svcThreadGetId
    rt_cmsis.o(i.osThreadExit) refers to rt_cmsis.o(i.svcThreadTerminate) for svcThreadTerminate
    rt_cmsis.o(i.osThreadGetId) refers to rt_cmsis.o(i.svcThreadGetId) for svcThreadGetId
    rt_cmsis.o(i.osThreadGetPriority) refers to rt_cmsis.o(i.svcThreadGetPriority) for svcThreadGetPriority
    rt_cmsis.o(i.osThreadSetPriority) refers to rt_cmsis.o(i.svcThreadSetPriority) for svcThreadSetPriority
    rt_cmsis.o(i.osThreadTerminate) refers to rt_cmsis.o(i.svcThreadTerminate) for svcThreadTerminate
    rt_cmsis.o(i.osThreadYield) refers to rt_cmsis.o(i.svcThreadYield) for svcThreadYield
    rt_cmsis.o(i.osTimerCall) refers to rt_cmsis.o(i.svcTimerCall) for svcTimerCall
    rt_cmsis.o(i.osTimerCreate) refers to rt_cmsis.o(i.svcTimerCreate) for svcTimerCreate
    rt_cmsis.o(i.osTimerCreate) refers to rt_cmsis.o(.data) for .data
    rt_cmsis.o(i.osTimerDelete) refers to rt_cmsis.o(i.svcTimerDelete) for svcTimerDelete
    rt_cmsis.o(i.osTimerStart) refers to rt_cmsis.o(i.svcTimerStart) for svcTimerStart
    rt_cmsis.o(i.osTimerStop) refers to rt_cmsis.o(i.svcTimerStop) for svcTimerStop
    rt_cmsis.o(i.osTimerThread) refers to rt_cmsis.o(i.osMessageGet) for osMessageGet
    rt_cmsis.o(i.osTimerThread) refers to rt_cmsis.o(i.osTimerCall) for osTimerCall
    rt_cmsis.o(i.osTimerThread) refers to rtx_conf_cm.o(.data) for osMessageQId_osTimerMessageQ
    rt_cmsis.o(i.os_resume) refers to rt_system.o(i.rt_resume) for rt_resume
    rt_cmsis.o(i.os_suspend) refers to rt_system.o(i.rt_suspend) for rt_suspend
    rt_cmsis.o(i.rt_ms2tick) refers to rtx_conf_cm.o(.constdata) for os_clockrate
    rt_cmsis.o(i.rt_timer_insert) refers to rt_cmsis.o(.data) for .data
    rt_cmsis.o(i.rt_timer_remove) refers to rt_cmsis.o(.data) for .data
    rt_cmsis.o(i.svcDelay) refers to rt_cmsis.o(i.rt_ms2tick) for rt_ms2tick
    rt_cmsis.o(i.svcDelay) refers to rt_time.o(i.rt_dly_wait) for rt_dly_wait
    rt_cmsis.o(i.svcKernelInitialize) refers to rt_memory.o(i.rt_init_mem) for rt_init_mem
    rt_cmsis.o(i.svcKernelInitialize) refers to rt_task.o(i.rt_sys_init) for rt_sys_init
    rt_cmsis.o(i.svcKernelInitialize) refers to rt_cmsis.o(i.svcMessageCreate) for svcMessageCreate
    rt_cmsis.o(i.svcKernelInitialize) refers to rt_cmsis.o(i.svcThreadCreate) for svcThreadCreate
    rt_cmsis.o(i.svcKernelInitialize) refers to rt_cmsis.o(.data) for .data
    rt_cmsis.o(i.svcKernelInitialize) refers to rtx_conf_cm.o(.bss) for os_stack_mem
    rt_cmsis.o(i.svcKernelInitialize) refers to rtx_conf_cm.o(.constdata) for os_stack_sz
    rt_cmsis.o(i.svcKernelInitialize) refers to rt_task.o(.data) for os_tsk
    rt_cmsis.o(i.svcKernelInitialize) refers to rtx_conf_cm.o(.data) for osMessageQId_osTimerMessageQ
    rt_cmsis.o(i.svcKernelRunning) refers to rt_cmsis.o(.data) for .data
    rt_cmsis.o(i.svcKernelStart) refers to rt_task.o(i.rt_tsk_prio) for rt_tsk_prio
    rt_cmsis.o(i.svcKernelStart) refers to rt_task.o(i.rt_sys_start) for rt_sys_start
    rt_cmsis.o(i.svcKernelStart) refers to rt_cmsis.o(.data) for .data
    rt_cmsis.o(i.svcKernelStart) refers to rt_task.o(.data) for os_tsk
    rt_cmsis.o(i.svcKernelSysTick) refers to rtx_conf_cm.o(.text) for os_tick_val
    rt_cmsis.o(i.svcKernelSysTick) refers to rtx_conf_cm.o(.constdata) for os_trv
    rt_cmsis.o(i.svcKernelSysTick) refers to rt_time.o(.data) for os_time
    rt_cmsis.o(i.svcMailCreate) refers to rt_membox.o(i._init_box) for _init_box
    rt_cmsis.o(i.svcMailCreate) refers to rt_mailbox.o(i.rt_mbx_init) for rt_mbx_init
    rt_cmsis.o(i.svcMessageCreate) refers to rt_mailbox.o(i.rt_mbx_init) for rt_mbx_init
    rt_cmsis.o(i.svcMessageGet) refers to rt_cmsis.o(i.rt_ms2tick) for rt_ms2tick
    rt_cmsis.o(i.svcMessageGet) refers to rt_mailbox.o(i.rt_mbx_wait) for rt_mbx_wait
    rt_cmsis.o(i.svcMessagePut) refers to rt_cmsis.o(i.rt_ms2tick) for rt_ms2tick
    rt_cmsis.o(i.svcMessagePut) refers to rt_mailbox.o(i.rt_mbx_send) for rt_mbx_send
    rt_cmsis.o(i.svcMutexCreate) refers to rt_mutex.o(i.rt_mut_init) for rt_mut_init
    rt_cmsis.o(i.svcMutexDelete) refers to rt_cmsis.o(i.rt_id2obj) for rt_id2obj
    rt_cmsis.o(i.svcMutexDelete) refers to rt_mutex.o(i.rt_mut_delete) for rt_mut_delete
    rt_cmsis.o(i.svcMutexRelease) refers to rt_cmsis.o(i.rt_id2obj) for rt_id2obj
    rt_cmsis.o(i.svcMutexRelease) refers to rt_mutex.o(i.rt_mut_release) for rt_mut_release
    rt_cmsis.o(i.svcMutexWait) refers to rt_cmsis.o(i.rt_id2obj) for rt_id2obj
    rt_cmsis.o(i.svcMutexWait) refers to rt_cmsis.o(i.rt_ms2tick) for rt_ms2tick
    rt_cmsis.o(i.svcMutexWait) refers to rt_mutex.o(i.rt_mut_wait) for rt_mut_wait
    rt_cmsis.o(i.svcPoolCreate) refers to rt_membox.o(i._init_box) for _init_box
    rt_cmsis.o(i.svcSemaphoreCreate) refers to rt_semaphore.o(i.rt_sem_init) for rt_sem_init
    rt_cmsis.o(i.svcSemaphoreDelete) refers to rt_cmsis.o(i.rt_id2obj) for rt_id2obj
    rt_cmsis.o(i.svcSemaphoreDelete) refers to rt_semaphore.o(i.rt_sem_delete) for rt_sem_delete
    rt_cmsis.o(i.svcSemaphoreRelease) refers to rt_cmsis.o(i.rt_id2obj) for rt_id2obj
    rt_cmsis.o(i.svcSemaphoreRelease) refers to rt_semaphore.o(i.rt_sem_send) for rt_sem_send
    rt_cmsis.o(i.svcSemaphoreWait) refers to rt_cmsis.o(i.rt_id2obj) for rt_id2obj
    rt_cmsis.o(i.svcSemaphoreWait) refers to rt_cmsis.o(i.rt_ms2tick) for rt_ms2tick
    rt_cmsis.o(i.svcSemaphoreWait) refers to rt_semaphore.o(i.rt_sem_wait) for rt_sem_wait
    rt_cmsis.o(i.svcSignalClear) refers to rt_cmsis.o(i.rt_tid2ptcb) for rt_tid2ptcb
    rt_cmsis.o(i.svcSignalClear) refers to rt_event.o(i.rt_evt_clr) for rt_evt_clr
    rt_cmsis.o(i.svcSignalSet) refers to rt_cmsis.o(i.rt_tid2ptcb) for rt_tid2ptcb
    rt_cmsis.o(i.svcSignalSet) refers to rt_event.o(i.rt_evt_set) for rt_evt_set
    rt_cmsis.o(i.svcSignalWait) refers to rt_cmsis.o(i.rt_ms2tick) for rt_ms2tick
    rt_cmsis.o(i.svcSignalWait) refers to rt_event.o(i.rt_evt_wait) for rt_evt_wait
    rt_cmsis.o(i.svcSignalWait) refers to rt_task.o(.data) for os_tsk
    rt_cmsis.o(i.svcThreadCreate) refers to rt_memory.o(i.rt_alloc_mem) for rt_alloc_mem
    rt_cmsis.o(i.svcThreadCreate) refers to rt_task.o(i.rt_tsk_create) for rt_tsk_create
    rt_cmsis.o(i.svcThreadCreate) refers to rt_memory.o(i.rt_free_mem) for rt_free_mem
    rt_cmsis.o(i.svcThreadCreate) refers to rtx_conf_cm.o(.bss) for os_stack_mem
    rt_cmsis.o(i.svcThreadCreate) refers to rt_cmsis.o(i.osThreadExit) for osThreadExit
    rt_cmsis.o(i.svcThreadGetId) refers to rt_task.o(i.rt_tsk_self) for rt_tsk_self
    rt_cmsis.o(i.svcThreadGetId) refers to rtx_conf_cm.o(.bss) for os_active_TCB
    rt_cmsis.o(i.svcThreadGetPriority) refers to rt_cmsis.o(i.rt_tid2ptcb) for rt_tid2ptcb
    rt_cmsis.o(i.svcThreadSetPriority) refers to rt_cmsis.o(i.rt_tid2ptcb) for rt_tid2ptcb
    rt_cmsis.o(i.svcThreadSetPriority) refers to rt_task.o(i.rt_tsk_prio) for rt_tsk_prio
    rt_cmsis.o(i.svcThreadTerminate) refers to rt_cmsis.o(i.rt_tid2ptcb) for rt_tid2ptcb
    rt_cmsis.o(i.svcThreadTerminate) refers to rt_task.o(i.rt_tsk_delete) for rt_tsk_delete
    rt_cmsis.o(i.svcThreadTerminate) refers to rt_memory.o(i.rt_free_mem) for rt_free_mem
    rt_cmsis.o(i.svcThreadTerminate) refers to rtx_conf_cm.o(.bss) for os_stack_mem
    rt_cmsis.o(i.svcThreadYield) refers to rt_task.o(i.rt_tsk_pass) for rt_tsk_pass
    rt_cmsis.o(i.svcTimerCall) refers to rt_cmsis.o(i.rt_id2obj) for rt_id2obj
    rt_cmsis.o(i.svcTimerCreate) refers to rtx_conf_cm.o(.data) for osThreadId_osTimerThread
    rt_cmsis.o(i.svcTimerDelete) refers to rt_cmsis.o(i.rt_id2obj) for rt_id2obj
    rt_cmsis.o(i.svcTimerDelete) refers to rt_cmsis.o(i.rt_timer_remove) for rt_timer_remove
    rt_cmsis.o(i.svcTimerStart) refers to rt_cmsis.o(i.rt_id2obj) for rt_id2obj
    rt_cmsis.o(i.svcTimerStart) refers to uldiv.o(.text) for __aeabi_uldivmod
    rt_cmsis.o(i.svcTimerStart) refers to rt_cmsis.o(i.rt_timer_remove) for rt_timer_remove
    rt_cmsis.o(i.svcTimerStart) refers to rt_cmsis.o(i.rt_timer_insert) for rt_timer_insert
    rt_cmsis.o(i.svcTimerStart) refers to rtx_conf_cm.o(.constdata) for os_clockrate
    rt_cmsis.o(i.svcTimerStop) refers to rt_cmsis.o(i.rt_id2obj) for rt_id2obj
    rt_cmsis.o(i.svcTimerStop) refers to rt_cmsis.o(i.rt_timer_remove) for rt_timer_remove
    rt_cmsis.o(i.sysMailAlloc) refers to rt_membox.o(i.rt_alloc_box) for rt_alloc_box
    rt_cmsis.o(i.sysMailAlloc) refers to rt_cmsis.o(i.rt_clr_box) for rt_clr_box
    rt_cmsis.o(i.sysMailAlloc) refers to rt_list.o(i.rt_put_prio) for rt_put_prio
    rt_cmsis.o(i.sysMailAlloc) refers to rt_cmsis.o(i.rt_ms2tick) for rt_ms2tick
    rt_cmsis.o(i.sysMailAlloc) refers to rt_task.o(i.rt_block) for rt_block
    rt_cmsis.o(i.sysMailAlloc) refers to rt_task.o(.data) for os_tsk
    rt_cmsis.o(i.sysMailFree) refers to rt_membox.o(i.rt_free_box) for rt_free_box
    rt_cmsis.o(i.sysMailFree) refers to rt_list.o(i.rt_psq_enq) for rt_psq_enq
    rt_cmsis.o(i.sysMailFree) refers to rt_system.o(i.rt_psh_req) for rt_psh_req
    rt_cmsis.o(i.sysMailFree) refers to rt_membox.o(i.rt_alloc_box) for rt_alloc_box
    rt_cmsis.o(i.sysMailFree) refers to rt_list.o(i.rt_get_first) for rt_get_first
    rt_cmsis.o(i.sysMailFree) refers to hal_cm.o(i.rt_ret_val) for rt_ret_val
    rt_cmsis.o(i.sysMailFree) refers to rt_list.o(i.rt_rmv_dly) for rt_rmv_dly
    rt_cmsis.o(i.sysMailFree) refers to rt_task.o(i.rt_dispatch) for rt_dispatch
    rt_cmsis.o(i.sysPoolAlloc) refers to rt_membox.o(i.rt_alloc_box) for rt_alloc_box
    rt_cmsis.o(i.sysPoolAlloc) refers to rt_cmsis.o(i.rt_clr_box) for rt_clr_box
    rt_cmsis.o(i.sysPoolFree) refers to rt_membox.o(i.rt_free_box) for rt_free_box
    rt_cmsis.o(i.sysTimerTick) refers to rt_cmsis.o(i.isrMessagePut) for isrMessagePut
    rt_cmsis.o(i.sysTimerTick) refers to rtx_conf_cm.o(.text) for os_error
    rt_cmsis.o(i.sysTimerTick) refers to rt_cmsis.o(i.rt_timer_insert) for rt_timer_insert
    rt_cmsis.o(i.sysTimerTick) refers to rt_cmsis.o(.data) for .data
    rt_cmsis.o(i.sysTimerTick) refers to rtx_conf_cm.o(.data) for osMessageQId_osTimerMessageQ
    rt_cmsis.o(i.sysUserTimerUpdate) refers to rt_cmsis.o(i.sysTimerTick) for sysTimerTick
    rt_cmsis.o(i.sysUserTimerUpdate) refers to rt_cmsis.o(.data) for .data
    rt_cmsis.o(i.sysUserTimerWakeupTime) refers to rt_cmsis.o(.data) for .data
    net_eth.o(i.eth_check_link) refers to net_eth.o(i.eth_link_notify) for eth_link_notify
    net_eth.o(i.eth_check_link) refers to net_sys.o(.bss) for sys_control
    net_eth.o(i.eth_check_link) refers to net_eth.o(.bss) for .bss
    net_eth.o(i.eth_check_link) refers to net_config.o(.constdata) for eth0_config
    net_eth.o(i.eth_check_link) refers to net_eth.o(.constdata) for .constdata
    net_eth.o(i.eth_chk_addr) refers to net_config.o(.constdata) for eth0_config
    net_eth.o(i.eth_fetch_frame) refers to net_mem.o(i.mem_alloc) for mem_alloc
    net_eth.o(i.eth_fetch_frame) refers to net_eth.o(.bss) for .bss
    net_eth.o(i.eth_fetch_frame) refers to net_config.o(.constdata) for eth0_config
    net_eth.o(i.eth_get_addr) refers to net_arp.o(i.arp_get_hwadr) for arp_get_hwadr
    net_eth.o(i.eth_init_link) refers to net_eth.o(i.eth_link_notify) for eth_link_notify
    net_eth.o(i.eth_init_link) refers to rt_cmsis.o(i.osThreadCreate) for osThreadCreate
    net_eth.o(i.eth_init_link) refers to net_arp.o(i.arp_init) for arp_init
    net_eth.o(i.eth_init_link) refers to net_common.o(i.mem_crc32) for mem_crc32
    net_eth.o(i.eth_init_link) refers to net_eth.o(.bss) for .bss
    net_eth.o(i.eth_init_link) refers to net_config.o(.constdata) for eth0_config
    net_eth.o(i.eth_init_link) refers to net_eth.o(i.eth_notify) for eth_notify
    net_eth.o(i.eth_init_link) refers to net_eth.o(.data) for .data
    net_eth.o(i.eth_init_link) refers to net_eth.o(.constdata) for .constdata
    net_eth.o(i.eth_init_link) refers to net_sys.o(.bss) for sys_control
    net_eth.o(i.eth_notify) refers to rt_cmsis.o(i.osSignalSet) for osSignalSet
    net_eth.o(i.eth_notify) refers to net_eth.o(.data) for .data
    net_eth.o(i.eth_run_link) refers to net_eth.o(i.eth_fetch_frame) for eth_fetch_frame
    net_eth.o(i.eth_run_link) refers to net_eth.o(i.eth_check_link) for eth_check_link
    net_eth.o(i.eth_run_link) refers to net_arp.o(i.arp_cache_update) for arp_cache_update
    net_eth.o(i.eth_run_link) refers to net_arp.o(i.arp_process) for arp_process
    net_eth.o(i.eth_run_link) refers to net_ip.o(i.ip_chk_frame) for ip_chk_frame
    net_eth.o(i.eth_run_link) refers to net_arp.o(i.arp_cache_early) for arp_cache_early
    net_eth.o(i.eth_run_link) refers to net_arp.o(i.arp_cache_add) for arp_cache_add
    net_eth.o(i.eth_run_link) refers to net_icmp.o(i.icmp_process) for icmp_process
    net_eth.o(i.eth_run_link) refers to net_config.o(.text) for igmp_process
    net_eth.o(i.eth_run_link) refers to net_tcp.o(i.tcp_process) for tcp_process
    net_eth.o(i.eth_run_link) refers to net_mem.o(i.mem_free) for mem_free
    net_eth.o(i.eth_run_link) refers to net_eth.o(.bss) for .bss
    net_eth.o(i.eth_run_link) refers to net_sys.o(.bss) for sys_control
    net_eth.o(i.eth_run_link) refers to net_eth.o(.constdata) for .constdata
    net_eth.o(i.eth_send_frame) refers to net_ip.o(i.is_subnet_bcast) for is_subnet_bcast
    net_eth.o(i.eth_send_frame) refers to net_arp.o(i.arp_cache_find) for arp_cache_find
    net_eth.o(i.eth_send_frame) refers to net_eth.o(.bss) for .bss
    net_eth.o(i.eth_send_frame) refers to net_eth.o(.constdata) for .constdata
    net_eth.o(i.eth_send_frame) refers to net_ip.o(.constdata) for ip_bcast
    net_eth.o(i.eth_send_frame) refers to net_config.o(.constdata) for eth0_config
    net_eth.o(i.eth_set_filter) refers to net_config.o(.constdata) for eth0_config
    net_eth.o(i.eth_thread) refers to rt_cmsis.o(i.osSignalWait) for osSignalWait
    net_eth.o(i.eth_thread) refers to net_eth.o(i.eth_fetch_frame) for eth_fetch_frame
    net_eth.o(.constdata) refers to net_eth.o(i.eth_thread) for eth_thread
    net_arp.o(i.arp_cache_add) refers to net_arp.o(i.arp_is_cacheable) for arp_is_cacheable
    net_arp.o(i.arp_cache_add) refers to net_addr4.o(i.is_subnet) for is_subnet
    net_arp.o(i.arp_cache_add) refers to net_arp.o(i.arp_cache_alloc) for arp_cache_alloc
    net_arp.o(i.arp_cache_add) refers to net_config.o(.constdata) for eth0_config
    net_arp.o(i.arp_cache_add) refers to net_sys.o(.bss) for localm
    net_arp.o(i.arp_cache_alloc) refers to net_config.o(.constdata) for eth0_config
    net_arp.o(i.arp_cache_early) refers to net_arp.o(i.arp_is_cacheable) for arp_is_cacheable
    net_arp.o(i.arp_cache_early) refers to net_addr4.o(i.is_subnet) for is_subnet
    net_arp.o(i.arp_cache_early) refers to net_arp.o(i.arp_cache_alloc) for arp_cache_alloc
    net_arp.o(i.arp_cache_early) refers to net_arp.o(i.arp_send_request) for arp_send_request
    net_arp.o(i.arp_cache_early) refers to net_config.o(.constdata) for eth0_config
    net_arp.o(i.arp_cache_early) refers to net_sys.o(.bss) for localm
    net_arp.o(i.arp_cache_find) refers to net_addr4.o(i.is_subnet) for is_subnet
    net_arp.o(i.arp_cache_find) refers to net_arp.o(i.arp_cache_alloc) for arp_cache_alloc
    net_arp.o(i.arp_cache_find) refers to net_arp.o(i.arp_send_request) for arp_send_request
    net_arp.o(i.arp_cache_find) refers to net_sys.o(.bss) for localm
    net_arp.o(i.arp_cache_find) refers to net_config.o(.constdata) for eth0_config
    net_arp.o(i.arp_cache_find) refers to net_eth.o(.constdata) for eth_bcast
    net_arp.o(i.arp_cache_ip) refers to net_arp.o(i.arp_is_cacheable) for arp_is_cacheable
    net_arp.o(i.arp_cache_ip) refers to net_arp.o(i.arp_cache_find) for arp_cache_find
    net_arp.o(i.arp_cache_mac) refers to net_arp.o(i.arp_cache_alloc) for arp_cache_alloc
    net_arp.o(i.arp_cache_mac) refers to net_arp.o(i.arp_send_request) for arp_send_request
    net_arp.o(i.arp_cache_mac) refers to net_config.o(.constdata) for eth0_config
    net_arp.o(i.arp_cache_mac) refers to net_sys.o(.bss) for localm
    net_arp.o(i.arp_cache_update) refers to net_arp.o(i.arp_send_request) for arp_send_request
    net_arp.o(i.arp_cache_update) refers to net_arp.o(.data) for .data
    net_arp.o(i.arp_cache_update) refers to net_sys.o(.bss) for sys_control
    net_arp.o(i.arp_cache_update) refers to net_config.o(.constdata) for eth0_config
    net_arp.o(i.arp_get_hwadr) refers to net_config.o(.constdata) for eth0_config
    net_arp.o(i.arp_get_ip) refers to net_config.o(.constdata) for eth0_config
    net_arp.o(i.arp_get_mac) refers to net_arp.o(i.arp_get_hwadr) for arp_get_hwadr
    net_arp.o(i.arp_init) refers to net_config.o(.constdata) for eth0_config
    net_arp.o(i.arp_init) refers to net_arp.o(.data) for .data
    net_arp.o(i.arp_is_cacheable) refers to net_sys.o(.bss) for localm
    net_arp.o(i.arp_notify) refers to net_arp.o(i.arp_send_request) for arp_send_request
    net_arp.o(i.arp_notify) refers to net_arp.o(.data) for .data
    net_arp.o(i.arp_notify) refers to net_config.o(.constdata) for eth0_config
    net_arp.o(i.arp_notify) refers to net_sys.o(.bss) for localm
    net_arp.o(i.arp_probe) refers to net_arp.o(i.arp_send_request) for arp_send_request
    net_arp.o(i.arp_probe) refers to net_arp.o(.data) for .data
    net_arp.o(i.arp_proc_response) refers to net_config.o(.constdata) for eth0_config
    net_arp.o(i.arp_process) refers to net_arp.o(i.arp_cache_add) for arp_cache_add
    net_arp.o(i.arp_process) refers to net_arp.o(i.arp_send_reply) for arp_send_reply
    net_arp.o(i.arp_process) refers to net_arp.o(i.arp_proc_response) for arp_proc_response
    net_arp.o(i.arp_process) refers to net_sys.o(.bss) for localm
    net_arp.o(i.arp_process) refers to net_config.o(.constdata) for eth0_config
    net_arp.o(i.arp_process) refers to net_arp.o(.data) for .data
    net_arp.o(i.arp_send_reply) refers to net_mem.o(i.mem_alloc) for mem_alloc
    net_arp.o(i.arp_send_reply) refers to net_mem.o(i.mem_free) for mem_free
    net_arp.o(i.arp_send_reply) refers to net_config.o(.constdata) for eth0_config
    net_arp.o(i.arp_send_reply) refers to net_sys.o(.bss) for localm
    net_arp.o(i.arp_send_request) refers to net_mem.o(i.mem_alloc) for mem_alloc
    net_arp.o(i.arp_send_request) refers to net_mem.o(i.mem_free) for mem_free
    net_arp.o(i.arp_send_request) refers to net_config.o(.constdata) for eth0_config
    net_arp.o(i.arp_send_request) refers to net_eth.o(.constdata) for eth_bcast
    net_arp.o(i.arp_send_request) refers to net_addr4.o(.constdata) for net_addr_null
    net_ip.o(i.ip_chk_frame) refers to net_ip.o(i.is_subnet_bcast) for is_subnet_bcast
    net_ip.o(i.ip_chk_frame) refers to net_config.o(.text) for igmp_is_member
    net_ip.o(i.ip_chk_frame) refers to net_eth.o(i.eth_chk_addr) for eth_chk_addr
    net_ip.o(i.ip_chk_frame) refers to net_ip.o(i.ip_get_chksum) for ip_get_chksum
    net_ip.o(i.ip_chk_frame) refers to net_sys.o(.bss) for sys_control
    net_ip.o(i.ip_chk_frame) refers to net_ip.o(.constdata) for .constdata
    net_ip.o(i.ip_get_chksum) refers to net_common.o(i.chksum16) for chksum16
    net_ip.o(i.ip_get_locadr) refers to net_ip.o(i.ip_get_route) for ip_get_route
    net_ip.o(i.ip_get_locadr) refers to net_ip.o(.bss) for .bss
    net_ip.o(i.ip_get_locadr) refers to net_ip.o(.constdata) for .constdata
    net_ip.o(i.ip_get_locadr) refers to net_sys.o(.bss) for localm
    net_ip.o(i.ip_get_route) refers to net_addr4.o(i.is_subnet) for is_subnet
    net_ip.o(i.ip_get_route) refers to net_config.o(.constdata) for sys_config
    net_ip.o(i.ip_get_route) refers to net_sys.o(.bss) for localm
    net_ip.o(i.ip_localhost_init) refers to net_ip.o(.bss) for .bss
    net_ip.o(i.ip_localhost_init) refers to net_sys.o(.bss) for sys_control
    net_ip.o(i.ip_localhost_run) refers to net_ip.o(i.ip_chk_frame) for ip_chk_frame
    net_ip.o(i.ip_localhost_run) refers to net_icmp.o(i.icmp_process) for icmp_process
    net_ip.o(i.ip_localhost_run) refers to net_config.o(.text) for udp_process
    net_ip.o(i.ip_localhost_run) refers to net_tcp.o(i.tcp_process) for tcp_process
    net_ip.o(i.ip_localhost_run) refers to net_mem.o(i.mem_free) for mem_free
    net_ip.o(i.ip_localhost_run) refers to net_ip.o(.bss) for .bss
    net_ip.o(i.ip_localhost_run) refers to net_sys.o(.bss) for sys_control
    net_ip.o(i.ip_send_frame) refers to net_ip.o(i.ip_get_locadr) for ip_get_locadr
    net_ip.o(i.ip_send_frame) refers to net_ip.o(i.ip_get_chksum) for ip_get_chksum
    net_ip.o(i.ip_send_frame) refers to net_eth.o(i.eth_send_frame) for eth_send_frame
    net_ip.o(i.ip_send_frame) refers to net_config.o(.text) for ppp_send_frame
    net_ip.o(i.ip_send_frame) refers to net_mem.o(i.mem_alloc) for mem_alloc
    net_ip.o(i.ip_send_frame) refers to memcpya.o(.text) for __aeabi_memcpy
    net_ip.o(i.ip_send_frame) refers to net_sys.o(.bss) for sys_control
    net_ip.o(i.ip_send_frame) refers to net_ip.o(.bss) for .bss
    net_ip.o(i.ip_tx_offload) refers to net_ip.o(i.ip_get_route) for ip_get_route
    net_ip.o(i.ip_tx_offload) refers to net_ip.o(.bss) for .bss
    net_ip.o(i.ip_tx_offload) refers to net_sys.o(.bss) for sys_control
    net_ip.o(i.is_subnet_bcast) refers to net_sys.o(.bss) for localm
    net_icmp.o(i.icmp_ping) refers to net_sys.o(i.get_rnd32) for get_rnd32
    net_icmp.o(i.icmp_ping) refers to net_icmp.o(i.icmp_send_message) for icmp_send_message
    net_icmp.o(i.icmp_ping) refers to net_icmp.o(.bss) for .bss
    net_icmp.o(i.icmp_ping) refers to net_config.o(.constdata) for sys_config
    net_icmp.o(i.icmp_process) refers to net_common.o(i.chksum16) for chksum16
    net_icmp.o(i.icmp_process) refers to net_mem.o(i.mem_alloc) for mem_alloc
    net_icmp.o(i.icmp_process) refers to memcpya.o(.text) for __aeabi_memcpy
    net_icmp.o(i.icmp_process) refers to net_ip.o(i.ip_send_frame) for ip_send_frame
    net_icmp.o(i.icmp_process) refers to net_mem.o(i.mem_free) for mem_free
    net_icmp.o(i.icmp_process) refers to net_sys.o(.bss) for sys_control
    net_icmp.o(i.icmp_process) refers to net_icmp.o(.bss) for .bss
    net_icmp.o(i.icmp_send_message) refers to net_mem.o(i.mem_alloc) for mem_alloc
    net_icmp.o(i.icmp_send_message) refers to net_ip.o(i.ip_tx_offload) for ip_tx_offload
    net_icmp.o(i.icmp_send_message) refers to net_common.o(i.chksum16) for chksum16
    net_icmp.o(i.icmp_send_message) refers to net_ip.o(i.ip_send_frame) for ip_send_frame
    net_icmp.o(i.icmp_send_message) refers to net_mem.o(i.mem_free) for mem_free
    net_icmp.o(i.icmp_send_message) refers to net_icmp.o(.bss) for .bss
    net_icmp.o(i.icmp_service_init) refers to net_icmp.o(.bss) for .bss
    net_icmp.o(i.icmp_service_run) refers to net_icmp.o(i.icmp_send_message) for icmp_send_message
    net_icmp.o(i.icmp_service_run) refers to net_icmp.o(.bss) for .bss
    net_icmp.o(i.icmp_service_run) refers to net_sys.o(.bss) for sys_control
    net_icmp.o(i.icmp_service_run) refers to net_config.o(.constdata) for sys_config
    net_tcp.o(i.tcp_abort) refers to net_tcp.o(i.tcp_transit) for tcp_transit
    net_tcp.o(i.tcp_abort) refers to net_tcp.o(i.tcp_send_ctrl) for tcp_send_ctrl
    net_tcp.o(i.tcp_abort) refers to net_config.o(.constdata) for tcp_config
    net_tcp.o(i.tcp_check_send) refers to net_config.o(.constdata) for tcp_config
    net_tcp.o(i.tcp_close) refers to net_tcp.o(i.tcp_transit) for tcp_transit
    net_tcp.o(i.tcp_close) refers to net_tcp.o(i.tcp_send_ctrl) for tcp_send_ctrl
    net_tcp.o(i.tcp_close) refers to net_config.o(.constdata) for tcp_config
    net_tcp.o(i.tcp_connect) refers to net_tcp.o(i.tcp_get_free_port) for tcp_get_free_port
    net_tcp.o(i.tcp_connect) refers to net_sys.o(i.get_rnd32) for get_rnd32
    net_tcp.o(i.tcp_connect) refers to net_tcp.o(i.tcp_send_ctrl) for tcp_send_ctrl
    net_tcp.o(i.tcp_connect) refers to net_tcp.o(i.tcp_transit) for tcp_transit
    net_tcp.o(i.tcp_connect) refers to net_config.o(.constdata) for tcp_config
    net_tcp.o(i.tcp_get_addr) refers to net_config.o(.constdata) for tcp_config
    net_tcp.o(i.tcp_get_buf) refers to net_mem.o(i.mem_alloc) for mem_alloc
    net_tcp.o(i.tcp_get_free_port) refers to net_tcp.o(.data) for .data
    net_tcp.o(i.tcp_get_free_port) refers to net_config.o(.constdata) for tcp_config
    net_tcp.o(i.tcp_get_socket) refers to net_config.o(.text) for net_sys_error
    net_tcp.o(i.tcp_get_socket) refers to net_config.o(.constdata) for tcp_config
    net_tcp.o(i.tcp_get_state) refers to net_config.o(.constdata) for tcp_config
    net_tcp.o(i.tcp_ioctl_socket) refers to net_config.o(.constdata) for tcp_config
    net_tcp.o(i.tcp_listen) refers to net_config.o(.constdata) for tcp_config
    net_tcp.o(i.tcp_map_socket) refers to net_config.o(.constdata) for tcp_config
    net_tcp.o(i.tcp_max_data_size) refers to net_config.o(.constdata) for tcp_config
    net_tcp.o(i.tcp_no_ack) refers to net_tcp.o(.data) for .data
    net_tcp.o(i.tcp_ntoa) refers to net_tcp.o(.data) for .data
    net_tcp.o(i.tcp_proc_acknr) refers to net_mem.o(i.mem_free) for mem_free
    net_tcp.o(i.tcp_proc_acknr) refers to net_sys.o(.bss) for sys_control
    net_tcp.o(i.tcp_proc_dupack) refers to net_tcp.o(i.tcp_que_init) for tcp_que_init
    net_tcp.o(i.tcp_process) refers to net_tcp.o(i.tcp_map_socket) for tcp_map_socket
    net_tcp.o(i.tcp_process) refers to net_ip.o(i.ip4_checksum) for ip4_checksum
    net_tcp.o(i.tcp_process) refers to net_tcp.o(i.tcp_proc_dupack) for tcp_proc_dupack
    net_tcp.o(i.tcp_process) refers to net_tcp.o(i.tcp_proc_acknr) for tcp_proc_acknr
    net_tcp.o(i.tcp_process) refers to net_tcp.o(i.tcp_transit) for tcp_transit
    net_tcp.o(i.tcp_process) refers to net_tcp.o(i.tcp_send_ctrl) for tcp_send_ctrl
    net_tcp.o(i.tcp_process) refers to net_tcp.o(i.tcp_parse_opt) for tcp_parse_opt
    net_tcp.o(i.tcp_process) refers to net_sys.o(i.get_rnd32) for get_rnd32
    net_tcp.o(i.tcp_process) refers to net_tcp.o(i.tcp_send_reset) for tcp_send_reset
    net_tcp.o(i.tcp_process) refers to net_tcp.o(i.tcp_set_cwnd) for tcp_set_cwnd
    net_tcp.o(i.tcp_process) refers to net_sys.o(.bss) for sys_control
    net_tcp.o(i.tcp_process) refers to net_tcp.o(.data) for .data
    net_tcp.o(i.tcp_process) refers to net_config.o(.constdata) for sys_config
    net_tcp.o(i.tcp_process) refers to net_config.o(.text) for net_sys_error
    net_tcp.o(i.tcp_que_free) refers to net_mem.o(i.mem_free) for mem_free
    net_tcp.o(i.tcp_que_resend) refers to net_tcp.o(i.tcp_send_ctrl) for tcp_send_ctrl
    net_tcp.o(i.tcp_que_resend) refers to net_tcp.o(i.tcp_send_data) for tcp_send_data
    net_tcp.o(i.tcp_que_resend) refers to net_config.o(.constdata) for tcp_config
    net_tcp.o(i.tcp_release_socket) refers to memseta.o(.text) for __aeabi_memclr4
    net_tcp.o(i.tcp_release_socket) refers to net_config.o(.constdata) for tcp_config
    net_tcp.o(i.tcp_reset_tout) refers to net_config.o(.constdata) for tcp_config
    net_tcp.o(i.tcp_reset_window) refers to net_tcp.o(i.tcp_send_ctrl) for tcp_send_ctrl
    net_tcp.o(i.tcp_reset_window) refers to net_config.o(.constdata) for tcp_config
    net_tcp.o(i.tcp_send) refers to net_mem.o(i.mem_resize) for mem_resize
    net_tcp.o(i.tcp_send) refers to net_tcp.o(i.tcp_send_data) for tcp_send_data
    net_tcp.o(i.tcp_send) refers to net_mem.o(i.mem_free) for mem_free
    net_tcp.o(i.tcp_send) refers to net_config.o(.constdata) for tcp_config
    net_tcp.o(i.tcp_send) refers to net_sys.o(.bss) for sys_control
    net_tcp.o(i.tcp_send_ctrl) refers to net_mem.o(i.mem_alloc) for mem_alloc
    net_tcp.o(i.tcp_send_ctrl) refers to net_tcp.o(i.tcp_write) for tcp_write
    net_tcp.o(i.tcp_send_ctrl) refers to net_mem.o(i.mem_free) for mem_free
    net_tcp.o(i.tcp_send_data) refers to net_tcp.o(i.tcp_write) for tcp_write
    net_tcp.o(i.tcp_send_reset) refers to net_mem.o(i.mem_alloc) for mem_alloc
    net_tcp.o(i.tcp_send_reset) refers to net_tcp.o(i.tcp_write) for tcp_write
    net_tcp.o(i.tcp_send_reset) refers to net_mem.o(i.mem_free) for mem_free
    net_tcp.o(i.tcp_socket_init) refers to memseta.o(.text) for __aeabi_memclr4
    net_tcp.o(i.tcp_socket_init) refers to net_config.o(.constdata) for tcp_config
    net_tcp.o(i.tcp_socket_poll) refers to net_tcp.o(i.tcp_send_ctrl) for tcp_send_ctrl
    net_tcp.o(i.tcp_socket_poll) refers to net_tcp.o(i.tcp_que_resend) for tcp_que_resend
    net_tcp.o(i.tcp_socket_poll) refers to net_mem.o(i.mem_avail) for mem_avail
    net_tcp.o(i.tcp_socket_poll) refers to net_tcp.o(i.tcp_que_init) for tcp_que_init
    net_tcp.o(i.tcp_socket_poll) refers to net_tcp.o(i.tcp_que_free) for tcp_que_free
    net_tcp.o(i.tcp_socket_poll) refers to net_tcp.o(i.tcp_transit) for tcp_transit
    net_tcp.o(i.tcp_socket_poll) refers to net_sys.o(.bss) for sys_control
    net_tcp.o(i.tcp_socket_poll) refers to net_config.o(.constdata) for tcp_config
    net_tcp.o(i.tcp_socket_poll) refers to net_tcp.o(.data) for .data
    net_tcp.o(i.tcp_transit) refers to net_tcp.o(i.tcp_que_free) for tcp_que_free
    net_tcp.o(i.tcp_transit) refers to net_config.o(.constdata) for tcp_config
    net_tcp.o(i.tcp_write) refers to net_ip.o(i.ip_tx_offload) for ip_tx_offload
    net_tcp.o(i.tcp_write) refers to net_ip.o(i.ip_get_locadr) for ip_get_locadr
    net_tcp.o(i.tcp_write) refers to net_ip.o(i.ip4_checksum) for ip4_checksum
    net_tcp.o(i.tcp_write) refers to net_ip.o(i.ip_send_frame) for ip_send_frame
    net_tcp.o(i.tcp_write) refers to net_config.o(.constdata) for tcp_config
    net_tcp.o(.data) refers to net_tcp.o(.conststring) for .conststring
    net_sys.o(i.get_rnd32) refers to net_sys.o(.bss) for .bss
    net_sys.o(i.net_initialize) refers to net_mem.o(i.mem_init) for mem_init
    net_sys.o(i.net_initialize) refers to memseta.o(.text) for __aeabi_memclr4
    net_sys.o(i.net_initialize) refers to memcpya.o(.text) for __aeabi_memcpy
    net_sys.o(i.net_initialize) refers to net_config.o(.text) for net_sys_init
    net_sys.o(i.net_initialize) refers to rt_cmsis.o(i.osTimerCreate) for osTimerCreate
    net_sys.o(i.net_initialize) refers to rt_cmsis.o(i.osTimerStart) for osTimerStart
    net_sys.o(i.net_initialize) refers to net_sys.o(.bss) for .bss
    net_sys.o(i.net_initialize) refers to net_config.o(.constdata) for nlocalm
    net_sys.o(i.net_initialize) refers to net_sys.o(.constdata) for .constdata
    net_sys.o(i.net_main) refers to net_config.o(.text) for net_sys_run
    net_sys.o(i.net_main) refers to net_sys.o(.bss) for .bss
    net_sys.o(i.net_main) refers to net_config.o(.constdata) for sys_config
    net_sys.o(i.net_timer_tick) refers to net_sys.o(.bss) for .bss
    net_sys.o(.constdata) refers to net_sys.o(i.net_timer_tick) for net_timer_tick
    net_sys.o(.constdata) refers to net_sys.o(.bss) for os_timer_cb_net_tick
    usbd_core.o(i.USBD0_CoreThread) refers to usbd_core.o(i.USBD_CoreThread) for USBD_CoreThread
    usbd_core.o(i.USBD1_CoreThread) refers to usbd_core.o(i.USBD_CoreThread) for USBD_CoreThread
    usbd_core.o(i.USBD2_CoreThread) refers to usbd_core.o(i.USBD_CoreThread) for USBD_CoreThread
    usbd_core.o(i.USBD3_CoreThread) refers to usbd_core.o(i.USBD_CoreThread) for USBD_CoreThread
    usbd_core.o(i.USBD_CheckDevice) refers to usbd_config_0.o(.constdata) for usbd_dev_num
    usbd_core.o(i.USBD_Configured) refers to usbd_core.o(i.USBD_CheckDevice) for USBD_CheckDevice
    usbd_core.o(i.USBD_Configured) refers to usbd_config_0.o(.constdata) for usbd_dev_ptr
    usbd_core.o(i.USBD_Connect) refers to usbd_core.o(i.USBD_CheckDevice) for USBD_CheckDevice
    usbd_core.o(i.USBD_Connect) refers to usbd_core.o(i.USBD_DriverDeviceConnect) for USBD_DriverDeviceConnect
    usbd_core.o(i.USBD_Core) refers to usbd_config_0.o(.text) for USBD_EventPowerOn
    usbd_core.o(i.USBD_Core) refers to usbd_core.o(i.USBD_ResetCore) for USBD_ResetCore
    usbd_core.o(i.USBD_Core) refers to usbd_core.o(i.USBD_SwitchToHighSpeedCore) for USBD_SwitchToHighSpeedCore
    usbd_core.o(i.USBD_Core) refers to usbd_core.o(i.USBD_Endpoint0) for USBD_Endpoint0
    usbd_core.o(i.USBD_CoreThread) refers to rt_cmsis.o(i.osSignalWait) for osSignalWait
    usbd_core.o(i.USBD_CoreThread) refers to usbd_core.o(i.USBD_Core) for USBD_Core
    usbd_core.o(i.USBD_CoreThread) refers to usbd_config_0.o(.constdata) for usbd_dev_ptr
    usbd_core.o(i.USBD_CoreThread) refers to usbd_config_0.o(.data) for usbd_capabilities
    usbd_core.o(i.USBD_DataInStage) refers to usbd_core.o(i.USBD_DriverEndpointTransfer) for USBD_DriverEndpointTransfer
    usbd_core.o(i.USBD_DataInStage) refers to usbd_config_0.o(.constdata) for usbd_dev_ptr
    usbd_core.o(i.USBD_DataOutStage) refers to usbd_core.o(i.USBD_DriverEndpointTransfer) for USBD_DriverEndpointTransfer
    usbd_core.o(i.USBD_DataOutStage) refers to usbd_config_0.o(.constdata) for usbd_dev_ptr
    usbd_core.o(i.USBD_Disconnect) refers to usbd_core.o(i.USBD_CheckDevice) for USBD_CheckDevice
    usbd_core.o(i.USBD_Disconnect) refers to usbd_core.o(i.USBD_DriverDeviceDisconnect) for USBD_DriverDeviceDisconnect
    usbd_core.o(i.USBD_DriverDeviceConnect) refers to rt_cmsis.o(i.osSemaphoreWait) for osSemaphoreWait
    usbd_core.o(i.USBD_DriverDeviceConnect) refers to rt_cmsis.o(i.osSemaphoreRelease) for osSemaphoreRelease
    usbd_core.o(i.USBD_DriverDeviceConnect) refers to usbd_config_0.o(.data) for usbd_driver_semaphore_id
    usbd_core.o(i.USBD_DriverDeviceConnect) refers to usbd_config_0.o(.constdata) for usbd_dev_ptr
    usbd_core.o(i.USBD_DriverDeviceDisconnect) refers to rt_cmsis.o(i.osSemaphoreWait) for osSemaphoreWait
    usbd_core.o(i.USBD_DriverDeviceDisconnect) refers to rt_cmsis.o(i.osSemaphoreRelease) for osSemaphoreRelease
    usbd_core.o(i.USBD_DriverDeviceDisconnect) refers to usbd_config_0.o(.data) for usbd_driver_semaphore_id
    usbd_core.o(i.USBD_DriverDeviceDisconnect) refers to usbd_config_0.o(.constdata) for usbd_dev_ptr
    usbd_core.o(i.USBD_DriverDeviceGetState) refers to rt_cmsis.o(i.osSemaphoreWait) for osSemaphoreWait
    usbd_core.o(i.USBD_DriverDeviceGetState) refers to rt_cmsis.o(i.osSemaphoreRelease) for osSemaphoreRelease
    usbd_core.o(i.USBD_DriverDeviceGetState) refers to usbd_config_0.o(.data) for usbd_driver_semaphore_id
    usbd_core.o(i.USBD_DriverDeviceGetState) refers to usbd_config_0.o(.constdata) for usbd_dev_ptr
    usbd_core.o(i.USBD_DriverDeviceRemoteWakeup) refers to rt_cmsis.o(i.osSemaphoreWait) for osSemaphoreWait
    usbd_core.o(i.USBD_DriverDeviceRemoteWakeup) refers to rt_cmsis.o(i.osSemaphoreRelease) for osSemaphoreRelease
    usbd_core.o(i.USBD_DriverDeviceRemoteWakeup) refers to usbd_config_0.o(.data) for usbd_driver_semaphore_id
    usbd_core.o(i.USBD_DriverDeviceRemoteWakeup) refers to usbd_config_0.o(.constdata) for usbd_dev_ptr
    usbd_core.o(i.USBD_DriverDeviceSetAddress) refers to rt_cmsis.o(i.osSemaphoreWait) for osSemaphoreWait
    usbd_core.o(i.USBD_DriverDeviceSetAddress) refers to rt_cmsis.o(i.osSemaphoreRelease) for osSemaphoreRelease
    usbd_core.o(i.USBD_DriverDeviceSetAddress) refers to usbd_config_0.o(.data) for usbd_driver_semaphore_id
    usbd_core.o(i.USBD_DriverDeviceSetAddress) refers to usbd_config_0.o(.constdata) for usbd_dev_ptr
    usbd_core.o(i.USBD_DriverEndpointConfigure) refers to usbd_core.o(i.USBD_DriverEndpointTransferAbort) for USBD_DriverEndpointTransferAbort
    usbd_core.o(i.USBD_DriverEndpointConfigure) refers to rt_cmsis.o(i.osSemaphoreWait) for osSemaphoreWait
    usbd_core.o(i.USBD_DriverEndpointConfigure) refers to rt_cmsis.o(i.osSemaphoreRelease) for osSemaphoreRelease
    usbd_core.o(i.USBD_DriverEndpointConfigure) refers to usbd_config_0.o(.constdata) for usbd_dev_ptr
    usbd_core.o(i.USBD_DriverEndpointConfigure) refers to usbd_config_0.o(.data) for usbd_driver_semaphore_id
    usbd_core.o(i.USBD_DriverEndpointStall) refers to usbd_core.o(i.USBD_DriverEndpointTransferAbort) for USBD_DriverEndpointTransferAbort
    usbd_core.o(i.USBD_DriverEndpointStall) refers to rt_cmsis.o(i.osSemaphoreWait) for osSemaphoreWait
    usbd_core.o(i.USBD_DriverEndpointStall) refers to rt_cmsis.o(i.osSemaphoreRelease) for osSemaphoreRelease
    usbd_core.o(i.USBD_DriverEndpointStall) refers to usbd_config_0.o(.constdata) for usbd_dev_ptr
    usbd_core.o(i.USBD_DriverEndpointStall) refers to usbd_config_0.o(.data) for usbd_driver_semaphore_id
    usbd_core.o(i.USBD_DriverEndpointTransfer) refers to usbd_core.o(i.USBD_DriverEndpointTransferAbort) for USBD_DriverEndpointTransferAbort
    usbd_core.o(i.USBD_DriverEndpointTransfer) refers to rt_cmsis.o(i.osSemaphoreWait) for osSemaphoreWait
    usbd_core.o(i.USBD_DriverEndpointTransfer) refers to rt_cmsis.o(i.osSemaphoreRelease) for osSemaphoreRelease
    usbd_core.o(i.USBD_DriverEndpointTransfer) refers to usbd_config_0.o(.constdata) for usbd_dev_ptr
    usbd_core.o(i.USBD_DriverEndpointTransfer) refers to usbd_config_0.o(.data) for usbd_driver_semaphore_id
    usbd_core.o(i.USBD_DriverEndpointTransferAbort) refers to rt_cmsis.o(i.osSemaphoreWait) for osSemaphoreWait
    usbd_core.o(i.USBD_DriverEndpointTransferAbort) refers to rt_cmsis.o(i.osSemaphoreRelease) for osSemaphoreRelease
    usbd_core.o(i.USBD_DriverEndpointTransferAbort) refers to usbd_config_0.o(.constdata) for usbd_dev_ptr
    usbd_core.o(i.USBD_DriverEndpointTransferAbort) refers to usbd_config_0.o(.data) for usbd_driver_semaphore_id
    usbd_core.o(i.USBD_DriverEndpointTransferGetResult) refers to rt_cmsis.o(i.osSemaphoreWait) for osSemaphoreWait
    usbd_core.o(i.USBD_DriverEndpointTransferGetResult) refers to rt_cmsis.o(i.osSemaphoreRelease) for osSemaphoreRelease
    usbd_core.o(i.USBD_DriverEndpointTransferGetResult) refers to usbd_config_0.o(.data) for usbd_driver_semaphore_id
    usbd_core.o(i.USBD_DriverEndpointTransferGetResult) refers to usbd_config_0.o(.constdata) for usbd_dev_ptr
    usbd_core.o(i.USBD_DriverEndpointUnconfigure) refers to usbd_core.o(i.USBD_DriverEndpointTransferAbort) for USBD_DriverEndpointTransferAbort
    usbd_core.o(i.USBD_DriverEndpointUnconfigure) refers to rt_cmsis.o(i.osSemaphoreWait) for osSemaphoreWait
    usbd_core.o(i.USBD_DriverEndpointUnconfigure) refers to rt_cmsis.o(i.osSemaphoreRelease) for osSemaphoreRelease
    usbd_core.o(i.USBD_DriverEndpointUnconfigure) refers to usbd_config_0.o(.constdata) for usbd_dev_ptr
    usbd_core.o(i.USBD_DriverEndpointUnconfigure) refers to usbd_config_0.o(.data) for usbd_driver_semaphore_id
    usbd_core.o(i.USBD_DriverGetCapabilities) refers to usbd_config_0.o(.constdata) for usbd_dev_ptr
    usbd_core.o(i.USBD_DriverGetFrameNumber) refers to rt_cmsis.o(i.osSemaphoreWait) for osSemaphoreWait
    usbd_core.o(i.USBD_DriverGetFrameNumber) refers to rt_cmsis.o(i.osSemaphoreRelease) for osSemaphoreRelease
    usbd_core.o(i.USBD_DriverGetFrameNumber) refers to usbd_config_0.o(.data) for usbd_driver_semaphore_id
    usbd_core.o(i.USBD_DriverGetFrameNumber) refers to usbd_config_0.o(.constdata) for usbd_dev_ptr
    usbd_core.o(i.USBD_DriverGetVersion) refers to usbd_config_0.o(.constdata) for usbd_dev_ptr
    usbd_core.o(i.USBD_DriverInitialize) refers to rt_cmsis.o(i.osSemaphoreWait) for osSemaphoreWait
    usbd_core.o(i.USBD_DriverInitialize) refers to rt_cmsis.o(i.osSemaphoreRelease) for osSemaphoreRelease
    usbd_core.o(i.USBD_DriverInitialize) refers to usbd_config_0.o(.data) for usbd_driver_semaphore_id
    usbd_core.o(i.USBD_DriverInitialize) refers to usbd_config_0.o(.constdata) for usbd_dev_ptr
    usbd_core.o(i.USBD_DriverPowerControl) refers to rt_cmsis.o(i.osSemaphoreWait) for osSemaphoreWait
    usbd_core.o(i.USBD_DriverPowerControl) refers to rt_cmsis.o(i.osSemaphoreRelease) for osSemaphoreRelease
    usbd_core.o(i.USBD_DriverPowerControl) refers to usbd_config_0.o(.data) for usbd_driver_semaphore_id
    usbd_core.o(i.USBD_DriverPowerControl) refers to usbd_config_0.o(.constdata) for usbd_dev_ptr
    usbd_core.o(i.USBD_DriverReadSetupPacket) refers to rt_cmsis.o(i.osSemaphoreWait) for osSemaphoreWait
    usbd_core.o(i.USBD_DriverReadSetupPacket) refers to rt_cmsis.o(i.osSemaphoreRelease) for osSemaphoreRelease
    usbd_core.o(i.USBD_DriverReadSetupPacket) refers to usbd_config_0.o(.data) for usbd_driver_semaphore_id
    usbd_core.o(i.USBD_DriverReadSetupPacket) refers to usbd_config_0.o(.constdata) for usbd_dev_ptr
    usbd_core.o(i.USBD_DriverUninitialize) refers to rt_cmsis.o(i.osSemaphoreWait) for osSemaphoreWait
    usbd_core.o(i.USBD_DriverUninitialize) refers to rt_cmsis.o(i.osSemaphoreRelease) for osSemaphoreRelease
    usbd_core.o(i.USBD_DriverUninitialize) refers to usbd_config_0.o(.data) for usbd_driver_semaphore_id
    usbd_core.o(i.USBD_DriverUninitialize) refers to usbd_config_0.o(.constdata) for usbd_dev_ptr
    usbd_core.o(i.USBD_Endpoint0) refers to usbd_core.o(i.USBD_SetupStage) for USBD_SetupStage
    usbd_core.o(i.USBD_Endpoint0) refers to usbd_config_0.o(.text) for USBD_Core_Endpoint0_SetupPacketReceived
    usbd_core.o(i.USBD_Endpoint0) refers to usbd_core.o(i.USBD_DataInStage) for USBD_DataInStage
    usbd_core.o(i.USBD_Endpoint0) refers to usbd_core.o(i.USBD_StatusInStage) for USBD_StatusInStage
    usbd_core.o(i.USBD_Endpoint0) refers to usbd_core.o(i.USBD_ReqGetStatus) for USBD_ReqGetStatus
    usbd_core.o(i.USBD_Endpoint0) refers to usbd_core.o(i.USBD_StatusOutStage) for USBD_StatusOutStage
    usbd_core.o(i.USBD_Endpoint0) refers to usbd_core.o(i.USBD_ReqSetClrFeature) for USBD_ReqSetClrFeature
    usbd_core.o(i.USBD_Endpoint0) refers to usbd_core.o(i.USBD_ReqSetAddress) for USBD_ReqSetAddress
    usbd_core.o(i.USBD_Endpoint0) refers to usbd_core.o(i.USBD_ReqGetDescriptor) for USBD_ReqGetDescriptor
    usbd_core.o(i.USBD_Endpoint0) refers to usbd_core.o(i.USBD_ReqGetConfiguration) for USBD_ReqGetConfiguration
    usbd_core.o(i.USBD_Endpoint0) refers to usbd_core.o(i.USBD_ReqSetConfiguration) for USBD_ReqSetConfiguration
    usbd_core.o(i.USBD_Endpoint0) refers to usbd_core.o(i.USBD_ReqGetInterface) for USBD_ReqGetInterface
    usbd_core.o(i.USBD_Endpoint0) refers to usbd_core.o(i.USBD_ReqSetInterface) for USBD_ReqSetInterface
    usbd_core.o(i.USBD_Endpoint0) refers to usbd_core_cdc.o(i.USBD_Endpoint0_Setup_CDC_ReqToIF) for USBD_Endpoint0_Setup_CDC_ReqToIF
    usbd_core.o(i.USBD_Endpoint0) refers to usbd_core.o(i.USBD_EndpointStall) for USBD_EndpointStall
    usbd_core.o(i.USBD_Endpoint0) refers to usbd_core.o(i.USBD_StatusInStageDone) for USBD_StatusInStageDone
    usbd_core.o(i.USBD_Endpoint0) refers to usbd_core.o(i.USBD_DriverDeviceSetAddress) for USBD_DriverDeviceSetAddress
    usbd_core.o(i.USBD_Endpoint0) refers to usbd_core.o(i.USBD_DataOutStage) for USBD_DataOutStage
    usbd_core.o(i.USBD_Endpoint0) refers to usbd_core_cdc.o(i.USBD_Endpoint0_Out_CDC_ReqToIF) for USBD_Endpoint0_Out_CDC_ReqToIF
    usbd_core.o(i.USBD_Endpoint0) refers to usbd_core.o(i.USBD_StatusOutStageDone) for USBD_StatusOutStageDone
    usbd_core.o(i.USBD_Endpoint0) refers to usbd_config_0.o(.constdata) for usbd_dev_ptr
    usbd_core.o(i.USBD_EndpointAbort) refers to usbd_core.o(i.USBD_CheckDevice) for USBD_CheckDevice
    usbd_core.o(i.USBD_EndpointAbort) refers to usbd_core.o(i.USBD_DriverEndpointTransferAbort) for USBD_DriverEndpointTransferAbort
    usbd_core.o(i.USBD_EndpointRead) refers to usbd_core.o(i.USBD_CheckDevice) for USBD_CheckDevice
    usbd_core.o(i.USBD_EndpointRead) refers to usbd_core.o(i.USBD_DriverEndpointTransfer) for USBD_DriverEndpointTransfer
    usbd_core.o(i.USBD_EndpointReadGetResult) refers to usbd_core.o(i.USBD_CheckDevice) for USBD_CheckDevice
    usbd_core.o(i.USBD_EndpointReadGetResult) refers to usbd_core.o(i.USBD_DriverEndpointTransferGetResult) for USBD_DriverEndpointTransferGetResult
    usbd_core.o(i.USBD_EndpointStall) refers to usbd_core.o(i.USBD_CheckDevice) for USBD_CheckDevice
    usbd_core.o(i.USBD_EndpointStall) refers to usbd_core.o(i.USBD_DriverEndpointTransferAbort) for USBD_DriverEndpointTransferAbort
    usbd_core.o(i.USBD_EndpointStall) refers to usbd_core.o(i.USBD_DriverEndpointStall) for USBD_DriverEndpointStall
    usbd_core.o(i.USBD_EndpointStall) refers to usbd_config_0.o(.constdata) for usbd_dev_ptr
    usbd_core.o(i.USBD_EndpointWrite) refers to usbd_core.o(i.USBD_CheckDevice) for USBD_CheckDevice
    usbd_core.o(i.USBD_EndpointWrite) refers to usbd_core.o(i.USBD_DriverEndpointTransfer) for USBD_DriverEndpointTransfer
    usbd_core.o(i.USBD_EndpointWriteGetResult) refers to usbd_core.o(i.USBD_CheckDevice) for USBD_CheckDevice
    usbd_core.o(i.USBD_EndpointWriteGetResult) refers to usbd_core.o(i.USBD_DriverEndpointTransferGetResult) for USBD_DriverEndpointTransferGetResult
    usbd_core.o(i.USBD_Initialize) refers to usbd_core.o(i.USBD_CheckDevice) for USBD_CheckDevice
    usbd_core.o(i.USBD_Initialize) refers to usbd_core.o(i.USBD_DriverGetVersion) for USBD_DriverGetVersion
    usbd_core.o(i.USBD_Initialize) refers to usbd_core.o(i.USBD_DriverGetCapabilities) for USBD_DriverGetCapabilities
    usbd_core.o(i.USBD_Initialize) refers to rt_cmsis.o(i.osSemaphoreCreate) for osSemaphoreCreate
    usbd_core.o(i.USBD_Initialize) refers to usbd_config_0.o(.text) for USBD_ClassInitialize
    usbd_core.o(i.USBD_Initialize) refers to rt_cmsis.o(i.osThreadCreate) for osThreadCreate
    usbd_core.o(i.USBD_Initialize) refers to usbd_core.o(i.USBD_DriverInitialize) for USBD_DriverInitialize
    usbd_core.o(i.USBD_Initialize) refers to usbd_core.o(i.USBD_DriverPowerControl) for USBD_DriverPowerControl
    usbd_core.o(i.USBD_Initialize) refers to usbd_config_0.o(.data) for usbd_drv_version
    usbd_core.o(i.USBD_Initialize) refers to usbd_config_0.o(.constdata) for usbd_driver_semaphore_def_ptr
    usbd_core.o(i.USBD_ReqGetConfiguration) refers to usbd_config_0.o(.constdata) for usbd_dev_ptr
    usbd_core.o(i.USBD_ReqGetDescriptor) refers to usbd_config_0.o(.text) for USBD_Endpoint0_ReqGetDescriptor_HID
    usbd_core.o(i.USBD_ReqGetDescriptor) refers to usbd_config_0.o(.constdata) for usbd_dev_ptr
    usbd_core.o(i.USBD_ReqGetDescriptor) refers to usbd_config_0.o(.data) for usbd_desc_ptr
    usbd_core.o(i.USBD_ReqGetInterface) refers to usbd_config_0.o(.constdata) for usbd_dev_ptr
    usbd_core.o(i.USBD_ReqGetStatus) refers to usbd_config_0.o(.constdata) for usbd_dev_ptr
    usbd_core.o(i.USBD_ReqSetAddress) refers to usbd_config_0.o(.constdata) for usbd_dev_ptr
    usbd_core.o(i.USBD_ReqSetClrFeature) refers to usbd_config_0.o(.text) for USBD_EventEnableRemoteWakeup
    usbd_core.o(i.USBD_ReqSetClrFeature) refers to usbd_core.o(i.USBD_DriverEndpointTransferAbort) for USBD_DriverEndpointTransferAbort
    usbd_core.o(i.USBD_ReqSetClrFeature) refers to usbd_core.o(i.USBD_DriverEndpointStall) for USBD_DriverEndpointStall
    usbd_core.o(i.USBD_ReqSetClrFeature) refers to usbd_config_0.o(.constdata) for usbd_dev_ptr
    usbd_core.o(i.USBD_ReqSetConfiguration) refers to usbd_core.o(i.USBD_DriverEndpointTransferAbort) for USBD_DriverEndpointTransferAbort
    usbd_core.o(i.USBD_ReqSetConfiguration) refers to usbd_core.o(i.USBD_DriverEndpointUnconfigure) for USBD_DriverEndpointUnconfigure
    usbd_core.o(i.USBD_ReqSetConfiguration) refers to usbd_config_0.o(.text) for USBD_EventEndpointStop
    usbd_core.o(i.USBD_ReqSetConfiguration) refers to usbd_core.o(i.USBD_DriverEndpointConfigure) for USBD_DriverEndpointConfigure
    usbd_core.o(i.USBD_ReqSetConfiguration) refers to usbd_config_0.o(.constdata) for usbd_dev_ptr
    usbd_core.o(i.USBD_ReqSetConfiguration) refers to usbd_config_0.o(.data) for usbd_desc_ptr
    usbd_core.o(i.USBD_ReqSetInterface) refers to usbd_core.o(i.USBD_DriverEndpointTransferAbort) for USBD_DriverEndpointTransferAbort
    usbd_core.o(i.USBD_ReqSetInterface) refers to usbd_core.o(i.USBD_DriverEndpointConfigure) for USBD_DriverEndpointConfigure
    usbd_core.o(i.USBD_ReqSetInterface) refers to usbd_config_0.o(.text) for USBD_EventEndpointStart
    usbd_core.o(i.USBD_ReqSetInterface) refers to usbd_core.o(i.USBD_DriverEndpointUnconfigure) for USBD_DriverEndpointUnconfigure
    usbd_core.o(i.USBD_ReqSetInterface) refers to usbd_config_0.o(.constdata) for usbd_dev_ptr
    usbd_core.o(i.USBD_ReqSetInterface) refers to usbd_config_0.o(.data) for usbd_desc_ptr
    usbd_core.o(i.USBD_ResetCore) refers to usbd_core.o(i.USBD_DriverEndpointConfigure) for USBD_DriverEndpointConfigure
    usbd_core.o(i.USBD_ResetCore) refers to usbd_config_0.o(.constdata) for usbd_dev_ptr
    usbd_core.o(i.USBD_ResetCore) refers to usbd_config_0.o(.data) for usbd_desc_ptr
    usbd_core.o(i.USBD_SetupStage) refers to usbd_core.o(i.USBD_DriverReadSetupPacket) for USBD_DriverReadSetupPacket
    usbd_core.o(i.USBD_SetupStage) refers to usbd_config_0.o(.constdata) for usbd_dev_ptr
    usbd_core.o(i.USBD_SignalDeviceEvent) refers to rt_cmsis.o(i.osSignalSet) for osSignalSet
    usbd_core.o(i.USBD_SignalDeviceEvent) refers to usbd_config_0.o(.data) for usbd_core_thread_id
    usbd_core.o(i.USBD_SignalEndpointEvent) refers to rt_cmsis.o(i.osSignalSet) for osSignalSet
    usbd_core.o(i.USBD_SignalEndpointEvent) refers to usbd_config_0.o(.constdata) for usbd_dev_ptr
    usbd_core.o(i.USBD_SignalEndpointEvent) refers to usbd_config_0.o(.data) for usbd_ep_thread_id_ptr
    usbd_core.o(i.USBD_StatusInStage) refers to usbd_core.o(i.USBD_DriverEndpointTransfer) for USBD_DriverEndpointTransfer
    usbd_core.o(i.USBD_StatusInStageDone) refers to usbd_core.o(i.USBD_DriverEndpointTransferGetResult) for USBD_DriverEndpointTransferGetResult
    usbd_core.o(i.USBD_StatusOutStage) refers to usbd_core.o(i.USBD_DriverEndpointTransfer) for USBD_DriverEndpointTransfer
    usbd_core.o(i.USBD_StatusOutStageDone) refers to usbd_core.o(i.USBD_DriverEndpointTransferGetResult) for USBD_DriverEndpointTransferGetResult
    usbd_core.o(i.USBD_StatusOutStageDone) refers to usbd_core.o(i.USBD_DriverEndpointTransferAbort) for USBD_DriverEndpointTransferAbort
    usbd_core.o(i.USBD_StatusOutStageDone) refers to usbd_config_0.o(.constdata) for usbd_dev_ptr
    usbd_core.o(i.USBD_SwitchToHighSpeedCore) refers to usbd_config_0.o(.constdata) for usbd_dev_ptr
    usbd_core.o(i.USBD_Uninitialize) refers to usbd_core.o(i.USBD_CheckDevice) for USBD_CheckDevice
    usbd_core.o(i.USBD_Uninitialize) refers to usbd_config_0.o(.text) for USBD_EventEndpointStop
    usbd_core.o(i.USBD_Uninitialize) refers to usbd_core.o(i.USBD_DriverEndpointTransferAbort) for USBD_DriverEndpointTransferAbort
    usbd_core.o(i.USBD_Uninitialize) refers to usbd_core.o(i.USBD_DriverEndpointUnconfigure) for USBD_DriverEndpointUnconfigure
    usbd_core.o(i.USBD_Uninitialize) refers to usbd_core.o(i.USBD_DriverPowerControl) for USBD_DriverPowerControl
    usbd_core.o(i.USBD_Uninitialize) refers to usbd_core.o(i.USBD_DriverUninitialize) for USBD_DriverUninitialize
    usbd_core.o(i.USBD_Uninitialize) refers to rt_cmsis.o(i.osThreadTerminate) for osThreadTerminate
    usbd_core.o(i.USBD_Uninitialize) refers to rt_cmsis.o(i.osSemaphoreDelete) for osSemaphoreDelete
    usbd_core.o(i.USBD_Uninitialize) refers to usbd_config_0.o(.constdata) for usbd_dev_ptr
    usbd_core.o(i.USBD_Uninitialize) refers to usbd_config_0.o(.data) for usbd_core_thread_id
    usbd_cdc.o(i.USBD_CDC0_Bulk_Thread) refers to usbd_cdc.o(i.USBD_CDC_Bulk_Thread) for USBD_CDC_Bulk_Thread
    usbd_cdc.o(i.USBD_CDC0_Int_Thread) refers to usbd_cdc.o(i.USBD_CDC_Int_Thread) for USBD_CDC_Int_Thread
    usbd_cdc.o(i.USBD_CDC1_Bulk_Thread) refers to usbd_cdc.o(i.USBD_CDC_Bulk_Thread) for USBD_CDC_Bulk_Thread
    usbd_cdc.o(i.USBD_CDC1_Int_Thread) refers to usbd_cdc.o(i.USBD_CDC_Int_Thread) for USBD_CDC_Int_Thread
    usbd_cdc.o(i.USBD_CDC2_Bulk_Thread) refers to usbd_cdc.o(i.USBD_CDC_Bulk_Thread) for USBD_CDC_Bulk_Thread
    usbd_cdc.o(i.USBD_CDC2_Int_Thread) refers to usbd_cdc.o(i.USBD_CDC_Int_Thread) for USBD_CDC_Int_Thread
    usbd_cdc.o(i.USBD_CDC3_Bulk_Thread) refers to usbd_cdc.o(i.USBD_CDC_Bulk_Thread) for USBD_CDC_Bulk_Thread
    usbd_cdc.o(i.USBD_CDC3_Int_Thread) refers to usbd_cdc.o(i.USBD_CDC_Int_Thread) for USBD_CDC_Int_Thread
    usbd_cdc.o(i.USBD_CDC_ACM_CoreGetLineCoding) refers to usbd_cdc.o(i.USBD_CDC_CheckInstance) for USBD_CDC_CheckInstance
    usbd_cdc.o(i.USBD_CDC_ACM_CoreGetLineCoding) refers to usbd_config_0.o(.constdata) for usbd_cdc_ptr
    usbd_cdc.o(i.USBD_CDC_ACM_CoreReset) refers to usbd_cdc.o(i.USBD_CDC_CheckInstance) for USBD_CDC_CheckInstance
    usbd_cdc.o(i.USBD_CDC_ACM_CoreReset) refers to usbd_config_0.o(.constdata) for usbd_cdc_ptr
    usbd_cdc.o(i.USBD_CDC_ACM_CoreSetControlLineState) refers to usbd_cdc.o(i.USBD_CDC_CheckInstance) for USBD_CDC_CheckInstance
    usbd_cdc.o(i.USBD_CDC_ACM_CoreSetControlLineState) refers to usbd_config_0.o(.constdata) for usbd_cdc_ptr
    usbd_cdc.o(i.USBD_CDC_ACM_CoreSetLineCoding) refers to usbd_cdc.o(i.USBD_CDC_CheckInstance) for USBD_CDC_CheckInstance
    usbd_cdc.o(i.USBD_CDC_ACM_CoreSetLineCoding) refers to usbd_config_0.o(.constdata) for usbd_cdc_ptr
    usbd_cdc.o(i.USBD_CDC_ACM_DataAvailable) refers to usbd_cdc.o(i.USBD_CDC_CheckInstance) for USBD_CDC_CheckInstance
    usbd_cdc.o(i.USBD_CDC_ACM_DataAvailable) refers to usbd_config_0.o(.constdata) for usbd_cdc_ptr
    usbd_cdc.o(i.USBD_CDC_ACM_GetChar) refers to usbd_cdc.o(i.USBD_CDC_ACM_ReadData) for USBD_CDC_ACM_ReadData
    usbd_cdc.o(i.USBD_CDC_ACM_Notify) refers to usbd_cdc.o(i.USBD_CDC_CheckInstance) for USBD_CDC_CheckInstance
    usbd_cdc.o(i.USBD_CDC_ACM_Notify) refers to usbd_core.o(i.USBD_EndpointWrite) for USBD_EndpointWrite
    usbd_cdc.o(i.USBD_CDC_ACM_Notify) refers to usbd_config_0.o(.constdata) for usbd_cdc_ptr
    usbd_cdc.o(i.USBD_CDC_ACM_PutChar) refers to usbd_cdc.o(i.USBD_CDC_ACM_WriteData) for USBD_CDC_ACM_WriteData
    usbd_cdc.o(i.USBD_CDC_ACM_ReadData) refers to usbd_cdc.o(i.USBD_CDC_CheckInstance) for USBD_CDC_CheckInstance
    usbd_cdc.o(i.USBD_CDC_ACM_ReadData) refers to memcpya.o(.text) for __aeabi_memcpy
    usbd_cdc.o(i.USBD_CDC_ACM_ReadData) refers to usbd_core.o(i.USBD_DriverEndpointTransfer) for USBD_DriverEndpointTransfer
    usbd_cdc.o(i.USBD_CDC_ACM_ReadData) refers to usbd_config_0.o(.constdata) for usbd_cdc_ptr
    usbd_cdc.o(i.USBD_CDC_ACM_WriteData) refers to usbd_cdc.o(i.USBD_CDC_CheckInstance) for USBD_CDC_CheckInstance
    usbd_cdc.o(i.USBD_CDC_ACM_WriteData) refers to memcpya.o(.text) for __aeabi_memcpy
    usbd_cdc.o(i.USBD_CDC_ACM_WriteData) refers to rt_cmsis.o(i.osSignalSet) for osSignalSet
    usbd_cdc.o(i.USBD_CDC_ACM_WriteData) refers to usbd_config_0.o(.constdata) for usbd_cdc_ptr
    usbd_cdc.o(i.USBD_CDC_ACM_WriteData) refers to usbd_config_0.o(.data) for usbd_cdc_bulk_thread_id
    usbd_cdc.o(i.USBD_CDC_Bulk_Thread) refers to rt_cmsis.o(i.osSignalWait) for osSignalWait
    usbd_cdc.o(i.USBD_CDC_Bulk_Thread) refers to usbd_cdc.o(i.USBD_CDC_EventEpBulkOut) for USBD_CDC_EventEpBulkOut
    usbd_cdc.o(i.USBD_CDC_Bulk_Thread) refers to usbd_cdc.o(i.USBD_CDC_EventEpBulkIn) for USBD_CDC_EventEpBulkIn
    usbd_cdc.o(i.USBD_CDC_CheckInstance) refers to usbd_config_0.o(.constdata) for usbd_cdc_ptr
    usbd_cdc.o(i.USBD_CDC_ClassInitialize) refers to usbd_cdc.o(i.USBD_CDC_CheckInstance) for USBD_CDC_CheckInstance
    usbd_cdc.o(i.USBD_CDC_ClassInitialize) refers to rt_cmsis.o(i.osThreadCreate) for osThreadCreate
    usbd_cdc.o(i.USBD_CDC_ClassInitialize) refers to usbd_config_0.o(.constdata) for USBD_CDC_ACM_Initialize
    usbd_cdc.o(i.USBD_CDC_ClassInitialize) refers to usbd_config_0.o(.data) for usbd_cdc_int_thread_id
    usbd_cdc.o(i.USBD_CDC_ClassUninitialize) refers to usbd_cdc.o(i.USBD_CDC_CheckInstance) for USBD_CDC_CheckInstance
    usbd_cdc.o(i.USBD_CDC_ClassUninitialize) refers to rt_cmsis.o(i.osThreadTerminate) for osThreadTerminate
    usbd_cdc.o(i.USBD_CDC_ClassUninitialize) refers to usbd_config_0.o(.data) for usbd_cdc_bulk_thread_id
    usbd_cdc.o(i.USBD_CDC_ClassUninitialize) refers to usbd_config_0.o(.constdata) for USBD_CDC_ACM_Uninitialize
    usbd_cdc.o(i.USBD_CDC_EventEndpointStart) refers to usbd_cdc.o(i.USBD_CDC_CheckInstance) for USBD_CDC_CheckInstance
    usbd_cdc.o(i.USBD_CDC_EventEndpointStart) refers to usbd_core.o(i.USBD_DriverEndpointTransfer) for USBD_DriverEndpointTransfer
    usbd_cdc.o(i.USBD_CDC_EventEndpointStart) refers to usbd_config_0.o(.constdata) for usbd_cdc_ptr
    usbd_cdc.o(i.USBD_CDC_EventEpBulkIn) refers to usbd_core.o(i.USBD_DriverEndpointTransferGetResult) for USBD_DriverEndpointTransferGetResult
    usbd_cdc.o(i.USBD_CDC_EventEpBulkIn) refers to usbd_core.o(i.USBD_DriverEndpointTransfer) for USBD_DriverEndpointTransfer
    usbd_cdc.o(i.USBD_CDC_EventEpBulkIn) refers to usbd_config_0.o(.constdata) for usbd_cdc_ptr
    usbd_cdc.o(i.USBD_CDC_EventEpBulkOut) refers to usbd_cdc.o(i.USBD_CDC_CheckInstance) for USBD_CDC_CheckInstance
    usbd_cdc.o(i.USBD_CDC_EventEpBulkOut) refers to usbd_core.o(i.USBD_DriverEndpointTransferGetResult) for USBD_DriverEndpointTransferGetResult
    usbd_cdc.o(i.USBD_CDC_EventEpBulkOut) refers to memcpya.o(.text) for __aeabi_memcpy
    usbd_cdc.o(i.USBD_CDC_EventEpBulkOut) refers to usbd_core.o(i.USBD_DriverEndpointTransfer) for USBD_DriverEndpointTransfer
    usbd_cdc.o(i.USBD_CDC_EventEpBulkOut) refers to usbd_config_0.o(.constdata) for usbd_cdc_ptr
    usbd_cdc.o(i.USBD_CDC_EventReset) refers to usbd_cdc.o(i.USBD_CDC_CheckInstance) for USBD_CDC_CheckInstance
    usbd_cdc.o(i.USBD_CDC_EventReset) refers to usbd_core.o(i.USBD_DriverEndpointTransferAbort) for USBD_DriverEndpointTransferAbort
    usbd_cdc.o(i.USBD_CDC_EventReset) refers to usbd_cdc.o(i.USBD_CDC_ACM_CoreReset) for USBD_CDC_ACM_CoreReset
    usbd_cdc.o(i.USBD_CDC_EventReset) refers to usbd_config_0.o(.constdata) for usbd_cdc_ptr
    usbd_cdc.o(i.USBD_CDC_Int_Thread) refers to rt_cmsis.o(i.osSignalWait) for osSignalWait
    usbd_cdc.o(i.USBD_CDC_Int_Thread) refers to usbd_config_0.o(.constdata) for usbd_cdc_ptr
    rt_task.o(i.rt_block) refers to rt_list.o(i.rt_put_dly) for rt_put_dly
    rt_task.o(i.rt_block) refers to rt_list.o(i.rt_get_first) for rt_get_first
    rt_task.o(i.rt_block) refers to rt_task.o(i.rt_switch_req) for rt_switch_req
    rt_task.o(i.rt_block) refers to rt_task.o(.data) for .data
    rt_task.o(i.rt_block) refers to rt_list.o(.bss) for os_rdy
    rt_task.o(i.rt_dispatch) refers to rt_list.o(i.rt_put_rdy_first) for rt_put_rdy_first
    rt_task.o(i.rt_dispatch) refers to rt_task.o(i.rt_switch_req) for rt_switch_req
    rt_task.o(i.rt_dispatch) refers to rt_list.o(i.rt_get_first) for rt_get_first
    rt_task.o(i.rt_dispatch) refers to rt_list.o(i.rt_put_prio) for rt_put_prio
    rt_task.o(i.rt_dispatch) refers to rt_task.o(.data) for .data
    rt_task.o(i.rt_dispatch) refers to rt_list.o(.bss) for os_rdy
    rt_task.o(i.rt_init_context) refers to rt_membox.o(i.rt_alloc_box) for rt_alloc_box
    rt_task.o(i.rt_init_context) refers to hal_cm.o(i.rt_init_stack) for rt_init_stack
    rt_task.o(i.rt_init_context) refers to rtx_conf_cm.o(.bss) for mp_stk
    rt_task.o(i.rt_switch_req) refers to hal_cm.o(i.dbg_task_switch) for dbg_task_switch
    rt_task.o(i.rt_switch_req) refers to rt_task.o(.data) for .data
    rt_task.o(i.rt_switch_req) refers to hal_cm.o(.data) for dbg_msg
    rt_task.o(i.rt_sys_init) refers to hal_cm.o(i.dbg_init) for dbg_init
    rt_task.o(i.rt_sys_init) refers to rt_membox.o(i._init_box) for _init_box
    rt_task.o(i.rt_sys_init) refers to rt_task.o(i.rt_init_context) for rt_init_context
    rt_task.o(i.rt_sys_init) refers to rt_robin.o(i.rt_init_robin) for rt_init_robin
    rt_task.o(i.rt_sys_init) refers to rtx_conf_cm.o(.bss) for os_active_TCB
    rt_task.o(i.rt_sys_init) refers to rtx_conf_cm.o(.constdata) for os_maxtaskrun
    rt_task.o(i.rt_sys_init) refers to rtx_conf_cm.o(.data) for m_tmr
    rt_task.o(i.rt_sys_init) refers to rt_task.o(.bss) for .bss
    rt_task.o(i.rt_sys_init) refers to rtx_conf_cm.o(.text) for os_idle_demon
    rt_task.o(i.rt_sys_init) refers to rt_list.o(.bss) for os_rdy
    rt_task.o(i.rt_sys_init) refers to rt_task.o(.data) for .data
    rt_task.o(i.rt_sys_start) refers to rtx_conf_cm.o(.text) for os_tick_init
    rt_task.o(i.rt_sys_start) refers to rt_system.o(.data) for os_tick_irqn
    rt_task.o(i.rt_tsk_create) refers to rt_membox.o(i.rt_alloc_box) for rt_alloc_box
    rt_task.o(i.rt_tsk_create) refers to rt_task.o(i.rt_init_context) for rt_init_context
    rt_task.o(i.rt_tsk_create) refers to hal_cm.o(i.dbg_task_notify) for dbg_task_notify
    rt_task.o(i.rt_tsk_create) refers to rt_task.o(i.rt_dispatch) for rt_dispatch
    rt_task.o(i.rt_tsk_create) refers to rtx_conf_cm.o(.bss) for mp_tcb
    rt_task.o(i.rt_tsk_create) refers to rtx_conf_cm.o(.constdata) for os_maxtaskrun
    rt_task.o(i.rt_tsk_create) refers to hal_cm.o(.data) for dbg_msg
    rt_task.o(i.rt_tsk_delete) refers to hal_cm4.o(.emb_text) for rt_get_PSP
    rt_task.o(i.rt_tsk_delete) refers to rt_system.o(i.rt_stk_check) for rt_stk_check
    rt_task.o(i.rt_tsk_delete) refers to rt_list.o(i.rt_get_first) for rt_get_first
    rt_task.o(i.rt_tsk_delete) refers to hal_cm.o(i.rt_ret_val) for rt_ret_val
    rt_task.o(i.rt_tsk_delete) refers to rt_list.o(i.rt_rmv_dly) for rt_rmv_dly
    rt_task.o(i.rt_tsk_delete) refers to rt_list.o(i.rt_put_prio) for rt_put_prio
    rt_task.o(i.rt_tsk_delete) refers to rt_membox.o(i.rt_free_box) for rt_free_box
    rt_task.o(i.rt_tsk_delete) refers to hal_cm.o(i.dbg_task_notify) for dbg_task_notify
    rt_task.o(i.rt_tsk_delete) refers to rt_list.o(i.rt_rmv_list) for rt_rmv_list
    rt_task.o(i.rt_tsk_delete) refers to rt_task.o(i.rt_dispatch) for rt_dispatch
    rt_task.o(i.rt_tsk_delete) refers to hal_cm.o(.data) for dbg_msg
    rt_task.o(i.rt_tsk_delete) refers to rtx_conf_cm.o(.bss) for os_active_TCB
    rt_task.o(i.rt_tsk_delete) refers to rt_task.o(.data) for .data
    rt_task.o(i.rt_tsk_delete) refers to rt_list.o(.bss) for os_rdy
    rt_task.o(i.rt_tsk_delete) refers to rtx_conf_cm.o(.constdata) for os_maxtaskrun
    rt_task.o(i.rt_tsk_pass) refers to rt_list.o(i.rt_get_same_rdy_prio) for rt_get_same_rdy_prio
    rt_task.o(i.rt_tsk_pass) refers to rt_list.o(i.rt_put_prio) for rt_put_prio
    rt_task.o(i.rt_tsk_pass) refers to rt_task.o(i.rt_switch_req) for rt_switch_req
    rt_task.o(i.rt_tsk_pass) refers to rt_task.o(.data) for .data
    rt_task.o(i.rt_tsk_pass) refers to rt_list.o(.bss) for os_rdy
    rt_task.o(i.rt_tsk_prio) refers to rt_list.o(i.rt_put_prio) for rt_put_prio
    rt_task.o(i.rt_tsk_prio) refers to rt_list.o(i.rt_resort_prio) for rt_resort_prio
    rt_task.o(i.rt_tsk_prio) refers to rt_list.o(i.rt_get_first) for rt_get_first
    rt_task.o(i.rt_tsk_prio) refers to rt_task.o(i.rt_dispatch) for rt_dispatch
    rt_task.o(i.rt_tsk_prio) refers to rt_task.o(.data) for .data
    rt_task.o(i.rt_tsk_prio) refers to rtx_conf_cm.o(.constdata) for os_maxtaskrun
    rt_task.o(i.rt_tsk_prio) refers to rtx_conf_cm.o(.bss) for os_active_TCB
    rt_task.o(i.rt_tsk_prio) refers to rt_list.o(.bss) for os_rdy
    rt_task.o(i.rt_tsk_self) refers to rt_task.o(.data) for .data
    rt_system.o(i.os_tick_init) refers to rtx_conf_cm.o(.constdata) for os_trv
    rt_system.o(i.os_tick_val) refers to rtx_conf_cm.o(.constdata) for os_trv
    rt_system.o(i.rt_pop_req) refers to rt_list.o(i.rt_put_rdy_first) for rt_put_rdy_first
    rt_system.o(i.rt_pop_req) refers to rt_semaphore.o(i.rt_sem_psh) for rt_sem_psh
    rt_system.o(i.rt_pop_req) refers to rt_list.o(i.rt_get_first) for rt_get_first
    rt_system.o(i.rt_pop_req) refers to rt_task.o(i.rt_switch_req) for rt_switch_req
    rt_system.o(i.rt_pop_req) refers to rt_event.o(i.rt_evt_psh) for rt_evt_psh
    rt_system.o(i.rt_pop_req) refers to rt_mailbox.o(i.rt_mbx_psh) for rt_mbx_psh
    rt_system.o(i.rt_pop_req) refers to rt_task.o(.data) for os_tsk
    rt_system.o(i.rt_pop_req) refers to rtx_conf_cm.o(.bss) for os_fifo
    rt_system.o(i.rt_pop_req) refers to rt_list.o(.bss) for os_rdy
    rt_system.o(i.rt_psh_req) refers to rt_system.o(.data) for .data
    rt_system.o(i.rt_resume) refers to rt_list.o(i.rt_put_rdy_first) for rt_put_rdy_first
    rt_system.o(i.rt_resume) refers to rt_list.o(i.rt_dec_dly) for rt_dec_dly
    rt_system.o(i.rt_resume) refers to rt_cmsis.o(i.sysUserTimerUpdate) for sysUserTimerUpdate
    rt_system.o(i.rt_resume) refers to rt_list.o(i.rt_get_first) for rt_get_first
    rt_system.o(i.rt_resume) refers to rt_task.o(i.rt_switch_req) for rt_switch_req
    rt_system.o(i.rt_resume) refers to rt_system.o(i.rt_tsk_unlock) for rt_tsk_unlock
    rt_system.o(i.rt_resume) refers to rt_task.o(.data) for os_tsk
    rt_system.o(i.rt_resume) refers to rt_robin.o(.data) for os_robin
    rt_system.o(i.rt_resume) refers to rt_list.o(.bss) for os_dly
    rt_system.o(i.rt_resume) refers to rt_time.o(.data) for os_time
    rt_system.o(i.rt_stk_check) refers to rtx_conf_cm.o(.text) for os_error
    rt_system.o(i.rt_stk_check) refers to rt_task.o(.data) for os_tsk
    rt_system.o(i.rt_suspend) refers to rt_system.o(i.rt_tsk_lock) for rt_tsk_lock
    rt_system.o(i.rt_suspend) refers to rt_cmsis.o(i.sysUserTimerWakeupTime) for sysUserTimerWakeupTime
    rt_system.o(i.rt_suspend) refers to rt_list.o(.bss) for os_dly
    rt_system.o(i.rt_systick) refers to rt_list.o(i.rt_put_rdy_first) for rt_put_rdy_first
    rt_system.o(i.rt_systick) refers to rt_robin.o(i.rt_chk_robin) for rt_chk_robin
    rt_system.o(i.rt_systick) refers to rt_list.o(i.rt_dec_dly) for rt_dec_dly
    rt_system.o(i.rt_systick) refers to rt_cmsis.o(i.sysTimerTick) for sysTimerTick
    rt_system.o(i.rt_systick) refers to rt_list.o(i.rt_get_first) for rt_get_first
    rt_system.o(i.rt_systick) refers to rt_task.o(i.rt_switch_req) for rt_switch_req
    rt_system.o(i.rt_systick) refers to rt_task.o(.data) for os_tsk
    rt_system.o(i.rt_systick) refers to rt_time.o(.data) for os_time
    rt_system.o(i.rt_systick) refers to rt_list.o(.bss) for os_rdy
    rt_system.o(i.rt_tsk_lock) refers to rt_system.o(.data) for .data
    rt_system.o(i.rt_tsk_unlock) refers to rt_system.o(.data) for .data
    rt_event.o(i.isr_evt_set) refers to rt_list.o(i.rt_psq_enq) for rt_psq_enq
    rt_event.o(i.isr_evt_set) refers to rt_system.o(i.rt_psh_req) for rt_psh_req
    rt_event.o(i.isr_evt_set) refers to rtx_conf_cm.o(.bss) for os_active_TCB
    rt_event.o(i.rt_evt_clr) refers to rtx_conf_cm.o(.bss) for os_active_TCB
    rt_event.o(i.rt_evt_get) refers to rt_task.o(.data) for os_tsk
    rt_event.o(i.rt_evt_psh) refers to rt_list.o(i.rt_rmv_dly) for rt_rmv_dly
    rt_event.o(i.rt_evt_psh) refers to hal_cm.o(i.rt_ret_val2) for rt_ret_val2
    rt_event.o(i.rt_evt_psh) refers to rt_list.o(i.rt_put_prio) for rt_put_prio
    rt_event.o(i.rt_evt_psh) refers to rt_list.o(.bss) for os_rdy
    rt_event.o(i.rt_evt_set) refers to rt_list.o(i.rt_rmv_dly) for rt_rmv_dly
    rt_event.o(i.rt_evt_set) refers to hal_cm.o(i.rt_ret_val2) for rt_ret_val2
    rt_event.o(i.rt_evt_set) refers to rt_task.o(i.rt_dispatch) for rt_dispatch
    rt_event.o(i.rt_evt_set) refers to rtx_conf_cm.o(.bss) for os_active_TCB
    rt_event.o(i.rt_evt_wait) refers to rt_task.o(i.rt_block) for rt_block
    rt_event.o(i.rt_evt_wait) refers to rt_task.o(.data) for os_tsk
    rt_list.o(i.rt_dec_dly) refers to rt_list.o(i.rt_put_prio) for rt_put_prio
    rt_list.o(i.rt_dec_dly) refers to rt_list.o(.bss) for .bss
    rt_list.o(i.rt_dec_dly) refers to rt_time.o(.data) for os_time
    rt_list.o(i.rt_get_same_rdy_prio) refers to rt_list.o(.bss) for .bss
    rt_list.o(i.rt_get_same_rdy_prio) refers to rt_task.o(.data) for os_tsk
    rt_list.o(i.rt_psq_enq) refers to rtx_conf_cm.o(.text) for os_error
    rt_list.o(i.rt_psq_enq) refers to rtx_conf_cm.o(.bss) for os_fifo
    rt_list.o(i.rt_put_dly) refers to rt_list.o(.bss) for .bss
    rt_list.o(i.rt_put_rdy_first) refers to rt_list.o(.bss) for .bss
    rt_list.o(i.rt_resort_prio) refers to rt_list.o(i.rt_rmv_list) for rt_rmv_list
    rt_list.o(i.rt_resort_prio) refers to rt_list.o(i.rt_put_prio) for rt_put_prio
    rt_list.o(i.rt_resort_prio) refers to rt_list.o(.bss) for .bss
    rt_list.o(i.rt_rmv_list) refers to rt_list.o(.bss) for .bss
    rt_mailbox.o(i.isr_mbx_receive) refers to rt_list.o(i.rt_psq_enq) for rt_psq_enq
    rt_mailbox.o(i.isr_mbx_receive) refers to rt_system.o(i.rt_psh_req) for rt_psh_req
    rt_mailbox.o(i.isr_mbx_send) refers to rt_list.o(i.rt_psq_enq) for rt_psq_enq
    rt_mailbox.o(i.isr_mbx_send) refers to rt_system.o(i.rt_psh_req) for rt_psh_req
    rt_mailbox.o(i.rt_mbx_psh) refers to rt_membox.o(i.rt_alloc_box) for rt_alloc_box
    rt_mailbox.o(i.rt_mbx_psh) refers to rt_list.o(i.rt_get_first) for rt_get_first
    rt_mailbox.o(i.rt_mbx_psh) refers to hal_cm.o(i.rt_ret_val) for rt_ret_val
    rt_mailbox.o(i.rt_mbx_psh) refers to rt_list.o(i.rt_rmv_dly) for rt_rmv_dly
    rt_mailbox.o(i.rt_mbx_psh) refers to rt_list.o(i.rt_put_prio) for rt_put_prio
    rt_mailbox.o(i.rt_mbx_psh) refers to hal_cm.o(i.rt_ret_val2) for rt_ret_val2
    rt_mailbox.o(i.rt_mbx_psh) refers to rtx_conf_cm.o(.text) for os_error
    rt_mailbox.o(i.rt_mbx_psh) refers to rt_list.o(.bss) for os_rdy
    rt_mailbox.o(i.rt_mbx_send) refers to rt_list.o(i.rt_put_prio) for rt_put_prio
    rt_mailbox.o(i.rt_mbx_send) refers to rt_list.o(i.rt_get_first) for rt_get_first
    rt_mailbox.o(i.rt_mbx_send) refers to hal_cm.o(i.rt_ret_val2) for rt_ret_val2
    rt_mailbox.o(i.rt_mbx_send) refers to rt_list.o(i.rt_rmv_dly) for rt_rmv_dly
    rt_mailbox.o(i.rt_mbx_send) refers to rt_task.o(i.rt_dispatch) for rt_dispatch
    rt_mailbox.o(i.rt_mbx_send) refers to rt_task.o(i.rt_block) for rt_block
    rt_mailbox.o(i.rt_mbx_send) refers to rt_task.o(.data) for os_tsk
    rt_mailbox.o(i.rt_mbx_wait) refers to rt_list.o(i.rt_get_first) for rt_get_first
    rt_mailbox.o(i.rt_mbx_wait) refers to hal_cm.o(i.rt_ret_val) for rt_ret_val
    rt_mailbox.o(i.rt_mbx_wait) refers to rt_list.o(i.rt_rmv_dly) for rt_rmv_dly
    rt_mailbox.o(i.rt_mbx_wait) refers to rt_task.o(i.rt_dispatch) for rt_dispatch
    rt_mailbox.o(i.rt_mbx_wait) refers to rt_list.o(i.rt_put_prio) for rt_put_prio
    rt_mailbox.o(i.rt_mbx_wait) refers to rt_task.o(i.rt_block) for rt_block
    rt_mailbox.o(i.rt_mbx_wait) refers to rt_task.o(.data) for os_tsk
    rt_semaphore.o(i.isr_sem_send) refers to rt_list.o(i.rt_psq_enq) for rt_psq_enq
    rt_semaphore.o(i.isr_sem_send) refers to rt_system.o(i.rt_psh_req) for rt_psh_req
    rt_semaphore.o(i.rt_sem_delete) refers to rt_list.o(i.rt_get_first) for rt_get_first
    rt_semaphore.o(i.rt_sem_delete) refers to hal_cm.o(i.rt_ret_val) for rt_ret_val
    rt_semaphore.o(i.rt_sem_delete) refers to rt_list.o(i.rt_rmv_dly) for rt_rmv_dly
    rt_semaphore.o(i.rt_sem_delete) refers to rt_list.o(i.rt_put_prio) for rt_put_prio
    rt_semaphore.o(i.rt_sem_delete) refers to rt_task.o(i.rt_dispatch) for rt_dispatch
    rt_semaphore.o(i.rt_sem_delete) refers to rt_list.o(.bss) for os_rdy
    rt_semaphore.o(i.rt_sem_delete) refers to rt_task.o(.data) for os_tsk
    rt_semaphore.o(i.rt_sem_psh) refers to rt_list.o(i.rt_get_first) for rt_get_first
    rt_semaphore.o(i.rt_sem_psh) refers to rt_list.o(i.rt_rmv_dly) for rt_rmv_dly
    rt_semaphore.o(i.rt_sem_psh) refers to hal_cm.o(i.rt_ret_val) for rt_ret_val
    rt_semaphore.o(i.rt_sem_psh) refers to rt_list.o(i.rt_put_prio) for rt_put_prio
    rt_semaphore.o(i.rt_sem_psh) refers to rt_list.o(.bss) for os_rdy
    rt_semaphore.o(i.rt_sem_send) refers to rt_list.o(i.rt_get_first) for rt_get_first
    rt_semaphore.o(i.rt_sem_send) refers to hal_cm.o(i.rt_ret_val) for rt_ret_val
    rt_semaphore.o(i.rt_sem_send) refers to rt_list.o(i.rt_rmv_dly) for rt_rmv_dly
    rt_semaphore.o(i.rt_sem_send) refers to rt_task.o(i.rt_dispatch) for rt_dispatch
    rt_semaphore.o(i.rt_sem_wait) refers to rt_list.o(i.rt_put_prio) for rt_put_prio
    rt_semaphore.o(i.rt_sem_wait) refers to rt_task.o(i.rt_block) for rt_block
    rt_semaphore.o(i.rt_sem_wait) refers to rt_task.o(.data) for os_tsk
    rt_time.o(i.rt_dly_wait) refers to rt_task.o(i.rt_block) for rt_block
    rt_time.o(i.rt_itv_set) refers to rt_task.o(.data) for os_tsk
    rt_time.o(i.rt_itv_set) refers to rt_time.o(.data) for .data
    rt_time.o(i.rt_itv_wait) refers to rt_task.o(i.rt_block) for rt_block
    rt_time.o(i.rt_itv_wait) refers to rt_task.o(.data) for os_tsk
    rt_time.o(i.rt_itv_wait) refers to rt_time.o(.data) for .data
    rt_time.o(i.rt_time_get) refers to rt_time.o(.data) for .data
    rt_mutex.o(i.rt_mut_delete) refers to rt_list.o(i.rt_resort_prio) for rt_resort_prio
    rt_mutex.o(i.rt_mut_delete) refers to rt_list.o(i.rt_get_first) for rt_get_first
    rt_mutex.o(i.rt_mut_delete) refers to hal_cm.o(i.rt_ret_val) for rt_ret_val
    rt_mutex.o(i.rt_mut_delete) refers to rt_list.o(i.rt_rmv_dly) for rt_rmv_dly
    rt_mutex.o(i.rt_mut_delete) refers to rt_list.o(i.rt_put_prio) for rt_put_prio
    rt_mutex.o(i.rt_mut_delete) refers to rt_task.o(i.rt_dispatch) for rt_dispatch
    rt_mutex.o(i.rt_mut_delete) refers to rt_task.o(.data) for os_tsk
    rt_mutex.o(i.rt_mut_delete) refers to rt_list.o(.bss) for os_rdy
    rt_mutex.o(i.rt_mut_release) refers to rt_list.o(i.rt_get_first) for rt_get_first
    rt_mutex.o(i.rt_mut_release) refers to hal_cm.o(i.rt_ret_val) for rt_ret_val
    rt_mutex.o(i.rt_mut_release) refers to rt_list.o(i.rt_rmv_dly) for rt_rmv_dly
    rt_mutex.o(i.rt_mut_release) refers to rt_list.o(i.rt_put_prio) for rt_put_prio
    rt_mutex.o(i.rt_mut_release) refers to rt_task.o(i.rt_dispatch) for rt_dispatch
    rt_mutex.o(i.rt_mut_release) refers to rt_task.o(.data) for os_tsk
    rt_mutex.o(i.rt_mut_release) refers to rt_list.o(.bss) for os_rdy
    rt_mutex.o(i.rt_mut_wait) refers to rt_list.o(i.rt_resort_prio) for rt_resort_prio
    rt_mutex.o(i.rt_mut_wait) refers to rt_list.o(i.rt_put_prio) for rt_put_prio
    rt_mutex.o(i.rt_mut_wait) refers to rt_task.o(i.rt_block) for rt_block
    rt_mutex.o(i.rt_mut_wait) refers to rt_task.o(.data) for os_tsk
    rt_membox.o(i._calloc_box) refers to hal_cm4.o(.emb_text) for _alloc_box
    hal_cm.o(i.dbg_init) refers to hal_cm.o(.data) for .data
    hal_cm.o(i.rt_init_stack) refers to rtx_conf_cm.o(.constdata) for os_stackinfo
    hal_cm.o(i.rt_ret_val) refers to hal_cm.o(i.rt_ret_regs) for rt_ret_regs
    hal_cm.o(i.rt_ret_val2) refers to hal_cm.o(i.rt_ret_regs) for rt_ret_regs
    net_mem.o(i.mem_alloc) refers to net_mem.o(i.mem_lock) for mem_lock
    net_mem.o(i.mem_alloc) refers to net_mem.o(i.mem_unlock) for mem_unlock
    net_mem.o(i.mem_alloc) refers to net_config.o(.text) for net_sys_error
    net_mem.o(i.mem_alloc) refers to net_mem.o(.bss) for .bss
    net_mem.o(i.mem_alloc) refers to net_config.o(.constdata) for sys_config
    net_mem.o(i.mem_avail) refers to net_mem.o(.bss) for .bss
    net_mem.o(i.mem_free) refers to net_mem.o(i.mem_lock) for mem_lock
    net_mem.o(i.mem_free) refers to net_mem.o(i.mem_unlock) for mem_unlock
    net_mem.o(i.mem_free) refers to net_config.o(.text) for net_sys_error
    net_mem.o(i.mem_free) refers to net_config.o(.constdata) for sys_config
    net_mem.o(i.mem_free) refers to net_mem.o(.bss) for .bss
    net_mem.o(i.mem_init) refers to rt_cmsis.o(i.osMutexCreate) for osMutexCreate
    net_mem.o(i.mem_init) refers to net_config.o(.constdata) for sys_config
    net_mem.o(i.mem_init) refers to net_mem.o(.bss) for .bss
    net_mem.o(i.mem_init) refers to net_mem.o(.constdata) for .constdata
    net_mem.o(i.mem_lock) refers to rt_cmsis.o(i.osMutexWait) for osMutexWait
    net_mem.o(i.mem_lock) refers to net_mem.o(.bss) for .bss
    net_mem.o(i.mem_resize) refers to net_mem.o(i.mem_lock) for mem_lock
    net_mem.o(i.mem_resize) refers to net_mem.o(i.mem_unlock) for mem_unlock
    net_mem.o(i.mem_resize) refers to net_mem.o(.bss) for .bss
    net_mem.o(i.mem_unlock) refers to rt_cmsis.o(i.osMutexRelease) for osMutexRelease
    net_mem.o(i.mem_unlock) refers to net_mem.o(.bss) for .bss
    net_mem.o(.constdata) refers to net_mem.o(.bss) for os_mutex_cb_mem_lock
    net_common.o(i.asc_to_b64) refers to net_common.o(i.encode_b64) for encode_b64
    net_common.o(i.bin_to_b64) refers to net_common.o(i.encode_b64) for encode_b64
    net_common.o(i.mem_crc32) refers to net_common.o(i.get_crc32) for get_crc32
    net_common.o(i.str_crc32) refers to net_common.o(i.get_crc32) for get_crc32
    net_addr4.o(i.ip4_aton) refers to _scanf_int.o(.text) for _scanf_int
    net_addr4.o(i.ip4_aton) refers to __0sscanf.o(.text) for __0sscanf
    net_addr4.o(i.ip4_ntoa) refers to printf8.o(i.__0sprintf$8) for __2sprintf
    net_addr4.o(i.ip4_ntoa) refers to net_addr4.o(.bss) for .bss
    net_addr4.o(i.mac_aton) refers to _scanf_int.o(.text) for _scanf_int
    net_addr4.o(i.mac_aton) refers to __0sscanf.o(.text) for __0sscanf
    net_addr4.o(i.mac_ntoa) refers to printf8.o(i.__0sprintf$8) for __2sprintf
    net_addr4.o(i.mac_ntoa) refers to net_addr4.o(.bss) for .bss
    usbd_core_cdc.o(i.USBD_Endpoint0_Out_CDC_ReqToIF) refers to usbd_cdc.o(i.USBD_CDC_ACM_CoreSendEncapsulatedCommand) for USBD_CDC_ACM_CoreSendEncapsulatedCommand
    usbd_core_cdc.o(i.USBD_Endpoint0_Out_CDC_ReqToIF) refers to usbd_core.o(i.USBD_StatusInStage) for USBD_StatusInStage
    usbd_core_cdc.o(i.USBD_Endpoint0_Out_CDC_ReqToIF) refers to usbd_cdc.o(i.USBD_CDC_ACM_CoreSetCommFeature) for USBD_CDC_ACM_CoreSetCommFeature
    usbd_core_cdc.o(i.USBD_Endpoint0_Out_CDC_ReqToIF) refers to usbd_cdc.o(i.USBD_CDC_ACM_CoreSetLineCoding) for USBD_CDC_ACM_CoreSetLineCoding
    usbd_core_cdc.o(i.USBD_Endpoint0_Out_CDC_ReqToIF) refers to usbd_config_0.o(.constdata) for usbd_dev_ptr
    usbd_core_cdc.o(i.USBD_Endpoint0_Setup_CDC_ReqToIF) refers to usbd_cdc.o(i.USBD_CDC_ACM_CoreGetEncapsulatedResponse) for USBD_CDC_ACM_CoreGetEncapsulatedResponse
    usbd_core_cdc.o(i.USBD_Endpoint0_Setup_CDC_ReqToIF) refers to usbd_core.o(i.USBD_DataInStage) for USBD_DataInStage
    usbd_core_cdc.o(i.USBD_Endpoint0_Setup_CDC_ReqToIF) refers to usbd_cdc.o(i.USBD_CDC_ACM_CoreGetCommFeature) for USBD_CDC_ACM_CoreGetCommFeature
    usbd_core_cdc.o(i.USBD_Endpoint0_Setup_CDC_ReqToIF) refers to usbd_cdc.o(i.USBD_CDC_ACM_CoreClearCommFeature) for USBD_CDC_ACM_CoreClearCommFeature
    usbd_core_cdc.o(i.USBD_Endpoint0_Setup_CDC_ReqToIF) refers to usbd_cdc.o(i.USBD_CDC_ACM_CoreGetLineCoding) for USBD_CDC_ACM_CoreGetLineCoding
    usbd_core_cdc.o(i.USBD_Endpoint0_Setup_CDC_ReqToIF) refers to usbd_core.o(i.USBD_StatusOutStage) for USBD_StatusOutStage
    usbd_core_cdc.o(i.USBD_Endpoint0_Setup_CDC_ReqToIF) refers to usbd_cdc.o(i.USBD_CDC_ACM_CoreSetControlLineState) for USBD_CDC_ACM_CoreSetControlLineState
    usbd_core_cdc.o(i.USBD_Endpoint0_Setup_CDC_ReqToIF) refers to usbd_core.o(i.USBD_StatusInStage) for USBD_StatusInStage
    usbd_core_cdc.o(i.USBD_Endpoint0_Setup_CDC_ReqToIF) refers to usbd_cdc.o(i.USBD_CDC_ACM_CoreSendBreak) for USBD_CDC_ACM_CoreSendBreak
    usbd_core_cdc.o(i.USBD_Endpoint0_Setup_CDC_ReqToIF) refers to usbd_config_0.o(.constdata) for usbd_dev_ptr
    rt_robin.o(i.rt_chk_robin) refers to rt_list.o(i.rt_get_first) for rt_get_first
    rt_robin.o(i.rt_chk_robin) refers to rt_list.o(i.rt_put_prio) for rt_put_prio
    rt_robin.o(i.rt_chk_robin) refers to rt_robin.o(.data) for .data
    rt_robin.o(i.rt_chk_robin) refers to rt_list.o(.bss) for os_rdy
    rt_robin.o(i.rt_chk_robin) refers to rt_time.o(.data) for os_time
    rt_robin.o(i.rt_init_robin) refers to rt_robin.o(.data) for .data
    rt_robin.o(i.rt_init_robin) refers to rtx_conf_cm.o(.constdata) for os_rrobin
    hal_cm4.o(.emb_text) refers to rtx_conf_cm.o(.constdata) for os_flags
    hal_cm4.o(.emb_text) refers to rt_membox.o(i.rt_alloc_box) for rt_alloc_box
    hal_cm4.o(.emb_text) refers to rt_membox.o(i.rt_free_box) for rt_free_box
    hal_cm4.o(.emb_text) refers to rt_system.o(i.rt_stk_check) for rt_stk_check
    hal_cm4.o(.emb_text) refers to rt_task.o(.data) for os_tsk
    hal_cm4.o(.emb_text) refers to svc_table.o(SVC_TABLE) for SVC_Count
    hal_cm4.o(.emb_text) refers to rt_system.o(i.rt_pop_req) for rt_pop_req
    hal_cm4.o(.emb_text) refers to rt_system.o(i.rt_systick) for rt_systick
    hal_cm4.o(.emb_text) refers to rtx_conf_cm.o(.text) for os_tick_irqack
    entry.o(.ARM.Collect$$$$00000000) refers (Special) to entry10a.o(.ARM.Collect$$$$0000000D) for __rt_final_cpp
    entry.o(.ARM.Collect$$$$00000000) refers (Special) to entry11a.o(.ARM.Collect$$$$0000000F) for __rt_final_exit
    entry.o(.ARM.Collect$$$$00000000) refers (Special) to entry7b.o(.ARM.Collect$$$$00000008) for _main_clock
    entry.o(.ARM.Collect$$$$00000000) refers (Special) to entry8b.o(.ARM.Collect$$$$0000000A) for _main_cpp_init
    entry.o(.ARM.Collect$$$$00000000) refers (Special) to rtx_conf_cm.o(.ARM.Collect$$$$000000FF) for _main_init
    entry.o(.ARM.Collect$$$$00000000) refers (Special) to entry5.o(.ARM.Collect$$$$00000004) for _main_scatterload
    entry.o(.ARM.Collect$$$$00000000) refers (Special) to entry2.o(.ARM.Collect$$$$00000001) for _main_stk
    uldiv.o(.text) refers to llushr.o(.text) for __aeabi_llsr
    uldiv.o(.text) refers to llshl.o(.text) for __aeabi_llsl
    printfb.o(i.__0fprintf$bare) refers to printfb.o(i._printf_core) for _printf_core
    printfb.o(i.__0fprintf$bare) refers to fputc.o(i.fputc) for fputc
    printfb.o(i.__0printf$bare) refers to printfb.o(i._printf_core) for _printf_core
    printfb.o(i.__0printf$bare) refers to fputc.o(i.fputc) for fputc
    printfb.o(i.__0printf$bare) refers to stdout.o(.data) for __stdout
    printfb.o(i.__0snprintf$bare) refers to printfb.o(i._printf_core) for _printf_core
    printfb.o(i.__0snprintf$bare) refers to printfb.o(i._snputc) for _snputc
    printfb.o(i.__0sprintf$bare) refers to printfb.o(i._printf_core) for _printf_core
    printfb.o(i.__0sprintf$bare) refers to printfb.o(i._sputc) for _sputc
    printfb.o(i.__0vfprintf$bare) refers to printfb.o(i._printf_core) for _printf_core
    printfb.o(i.__0vfprintf$bare) refers to fputc.o(i.fputc) for fputc
    printfb.o(i.__0vprintf$bare) refers to printfb.o(i._printf_core) for _printf_core
    printfb.o(i.__0vprintf$bare) refers to fputc.o(i.fputc) for fputc
    printfb.o(i.__0vprintf$bare) refers to stdout.o(.data) for __stdout
    printfb.o(i.__0vsnprintf$bare) refers to printfb.o(i._printf_core) for _printf_core
    printfb.o(i.__0vsnprintf$bare) refers to printfb.o(i._snputc) for _snputc
    printfb.o(i.__0vsprintf$bare) refers to printfb.o(i._printf_core) for _printf_core
    printfb.o(i.__0vsprintf$bare) refers to printfb.o(i._sputc) for _sputc
    printf0.o(i.__0fprintf$0) refers to printf0.o(i._printf_core) for _printf_core
    printf0.o(i.__0fprintf$0) refers to fputc.o(i.fputc) for fputc
    printf0.o(i.__0printf$0) refers to printf0.o(i._printf_core) for _printf_core
    printf0.o(i.__0printf$0) refers to fputc.o(i.fputc) for fputc
    printf0.o(i.__0printf$0) refers to stdout.o(.data) for __stdout
    printf0.o(i.__0snprintf$0) refers to printf0.o(i._printf_core) for _printf_core
    printf0.o(i.__0snprintf$0) refers to printf0.o(i._snputc) for _snputc
    printf0.o(i.__0sprintf$0) refers to printf0.o(i._printf_core) for _printf_core
    printf0.o(i.__0sprintf$0) refers to printf0.o(i._sputc) for _sputc
    printf0.o(i.__0vfprintf$0) refers to printf0.o(i._printf_core) for _printf_core
    printf0.o(i.__0vfprintf$0) refers to fputc.o(i.fputc) for fputc
    printf0.o(i.__0vprintf$0) refers to printf0.o(i._printf_core) for _printf_core
    printf0.o(i.__0vprintf$0) refers to fputc.o(i.fputc) for fputc
    printf0.o(i.__0vprintf$0) refers to stdout.o(.data) for __stdout
    printf0.o(i.__0vsnprintf$0) refers to printf0.o(i._printf_core) for _printf_core
    printf0.o(i.__0vsnprintf$0) refers to printf0.o(i._snputc) for _snputc
    printf0.o(i.__0vsprintf$0) refers to printf0.o(i._printf_core) for _printf_core
    printf0.o(i.__0vsprintf$0) refers to printf0.o(i._sputc) for _sputc
    printf1.o(i.__0fprintf$1) refers to printf1.o(i._printf_core) for _printf_core
    printf1.o(i.__0fprintf$1) refers to fputc.o(i.fputc) for fputc
    printf1.o(i.__0printf$1) refers to printf1.o(i._printf_core) for _printf_core
    printf1.o(i.__0printf$1) refers to fputc.o(i.fputc) for fputc
    printf1.o(i.__0printf$1) refers to stdout.o(.data) for __stdout
    printf1.o(i.__0snprintf$1) refers to printf1.o(i._printf_core) for _printf_core
    printf1.o(i.__0snprintf$1) refers to printf1.o(i._snputc) for _snputc
    printf1.o(i.__0sprintf$1) refers to printf1.o(i._printf_core) for _printf_core
    printf1.o(i.__0sprintf$1) refers to printf1.o(i._sputc) for _sputc
    printf1.o(i.__0vfprintf$1) refers to printf1.o(i._printf_core) for _printf_core
    printf1.o(i.__0vfprintf$1) refers to fputc.o(i.fputc) for fputc
    printf1.o(i.__0vprintf$1) refers to printf1.o(i._printf_core) for _printf_core
    printf1.o(i.__0vprintf$1) refers to fputc.o(i.fputc) for fputc
    printf1.o(i.__0vprintf$1) refers to stdout.o(.data) for __stdout
    printf1.o(i.__0vsnprintf$1) refers to printf1.o(i._printf_core) for _printf_core
    printf1.o(i.__0vsnprintf$1) refers to printf1.o(i._snputc) for _snputc
    printf1.o(i.__0vsprintf$1) refers to printf1.o(i._printf_core) for _printf_core
    printf1.o(i.__0vsprintf$1) refers to printf1.o(i._sputc) for _sputc
    printf1.o(i._printf_core) refers to uidiv.o(.text) for __aeabi_uidivmod
    printf2.o(i.__0fprintf$2) refers to printf2.o(i._printf_core) for _printf_core
    printf2.o(i.__0fprintf$2) refers to fputc.o(i.fputc) for fputc
    printf2.o(i.__0printf$2) refers to printf2.o(i._printf_core) for _printf_core
    printf2.o(i.__0printf$2) refers to fputc.o(i.fputc) for fputc
    printf2.o(i.__0printf$2) refers to stdout.o(.data) for __stdout
    printf2.o(i.__0snprintf$2) refers to printf2.o(i._printf_core) for _printf_core
    printf2.o(i.__0snprintf$2) refers to printf2.o(i._snputc) for _snputc
    printf2.o(i.__0sprintf$2) refers to printf2.o(i._printf_core) for _printf_core
    printf2.o(i.__0sprintf$2) refers to printf2.o(i._sputc) for _sputc
    printf2.o(i.__0vfprintf$2) refers to printf2.o(i._printf_core) for _printf_core
    printf2.o(i.__0vfprintf$2) refers to fputc.o(i.fputc) for fputc
    printf2.o(i.__0vprintf$2) refers to printf2.o(i._printf_core) for _printf_core
    printf2.o(i.__0vprintf$2) refers to fputc.o(i.fputc) for fputc
    printf2.o(i.__0vprintf$2) refers to stdout.o(.data) for __stdout
    printf2.o(i.__0vsnprintf$2) refers to printf2.o(i._printf_core) for _printf_core
    printf2.o(i.__0vsnprintf$2) refers to printf2.o(i._snputc) for _snputc
    printf2.o(i.__0vsprintf$2) refers to printf2.o(i._printf_core) for _printf_core
    printf2.o(i.__0vsprintf$2) refers to printf2.o(i._sputc) for _sputc
    printf3.o(i.__0fprintf$3) refers to printf3.o(i._printf_core) for _printf_core
    printf3.o(i.__0fprintf$3) refers to fputc.o(i.fputc) for fputc
    printf3.o(i.__0printf$3) refers to printf3.o(i._printf_core) for _printf_core
    printf3.o(i.__0printf$3) refers to fputc.o(i.fputc) for fputc
    printf3.o(i.__0printf$3) refers to stdout.o(.data) for __stdout
    printf3.o(i.__0snprintf$3) refers to printf3.o(i._printf_core) for _printf_core
    printf3.o(i.__0snprintf$3) refers to printf3.o(i._snputc) for _snputc
    printf3.o(i.__0sprintf$3) refers to printf3.o(i._printf_core) for _printf_core
    printf3.o(i.__0sprintf$3) refers to printf3.o(i._sputc) for _sputc
    printf3.o(i.__0vfprintf$3) refers to printf3.o(i._printf_core) for _printf_core
    printf3.o(i.__0vfprintf$3) refers to fputc.o(i.fputc) for fputc
    printf3.o(i.__0vprintf$3) refers to printf3.o(i._printf_core) for _printf_core
    printf3.o(i.__0vprintf$3) refers to fputc.o(i.fputc) for fputc
    printf3.o(i.__0vprintf$3) refers to stdout.o(.data) for __stdout
    printf3.o(i.__0vsnprintf$3) refers to printf3.o(i._printf_core) for _printf_core
    printf3.o(i.__0vsnprintf$3) refers to printf3.o(i._snputc) for _snputc
    printf3.o(i.__0vsprintf$3) refers to printf3.o(i._printf_core) for _printf_core
    printf3.o(i.__0vsprintf$3) refers to printf3.o(i._sputc) for _sputc
    printf3.o(i._printf_core) refers to uidiv.o(.text) for __aeabi_uidivmod
    printf4.o(i.__0fprintf$4) refers to printf4.o(i._printf_core) for _printf_core
    printf4.o(i.__0fprintf$4) refers to fputc.o(i.fputc) for fputc
    printf4.o(i.__0printf$4) refers to printf4.o(i._printf_core) for _printf_core
    printf4.o(i.__0printf$4) refers to fputc.o(i.fputc) for fputc
    printf4.o(i.__0printf$4) refers to stdout.o(.data) for __stdout
    printf4.o(i.__0snprintf$4) refers to printf4.o(i._printf_core) for _printf_core
    printf4.o(i.__0snprintf$4) refers to printf4.o(i._snputc) for _snputc
    printf4.o(i.__0sprintf$4) refers to printf4.o(i._printf_core) for _printf_core
    printf4.o(i.__0sprintf$4) refers to printf4.o(i._sputc) for _sputc
    printf4.o(i.__0vfprintf$4) refers to printf4.o(i._printf_core) for _printf_core
    printf4.o(i.__0vfprintf$4) refers to fputc.o(i.fputc) for fputc
    printf4.o(i.__0vprintf$4) refers to printf4.o(i._printf_core) for _printf_core
    printf4.o(i.__0vprintf$4) refers to fputc.o(i.fputc) for fputc
    printf4.o(i.__0vprintf$4) refers to stdout.o(.data) for __stdout
    printf4.o(i.__0vsnprintf$4) refers to printf4.o(i._printf_core) for _printf_core
    printf4.o(i.__0vsnprintf$4) refers to printf4.o(i._snputc) for _snputc
    printf4.o(i.__0vsprintf$4) refers to printf4.o(i._printf_core) for _printf_core
    printf4.o(i.__0vsprintf$4) refers to printf4.o(i._sputc) for _sputc
    printf4.o(i._printf_core) refers to uldiv.o(.text) for __aeabi_uldivmod
    printf5.o(i.__0fprintf$5) refers to printf5.o(i._printf_core) for _printf_core
    printf5.o(i.__0fprintf$5) refers to fputc.o(i.fputc) for fputc
    printf5.o(i.__0printf$5) refers to printf5.o(i._printf_core) for _printf_core
    printf5.o(i.__0printf$5) refers to fputc.o(i.fputc) for fputc
    printf5.o(i.__0printf$5) refers to stdout.o(.data) for __stdout
    printf5.o(i.__0snprintf$5) refers to printf5.o(i._printf_core) for _printf_core
    printf5.o(i.__0snprintf$5) refers to printf5.o(i._snputc) for _snputc
    printf5.o(i.__0sprintf$5) refers to printf5.o(i._printf_core) for _printf_core
    printf5.o(i.__0sprintf$5) refers to printf5.o(i._sputc) for _sputc
    printf5.o(i.__0vfprintf$5) refers to printf5.o(i._printf_core) for _printf_core
    printf5.o(i.__0vfprintf$5) refers to fputc.o(i.fputc) for fputc
    printf5.o(i.__0vprintf$5) refers to printf5.o(i._printf_core) for _printf_core
    printf5.o(i.__0vprintf$5) refers to fputc.o(i.fputc) for fputc
    printf5.o(i.__0vprintf$5) refers to stdout.o(.data) for __stdout
    printf5.o(i.__0vsnprintf$5) refers to printf5.o(i._printf_core) for _printf_core
    printf5.o(i.__0vsnprintf$5) refers to printf5.o(i._snputc) for _snputc
    printf5.o(i.__0vsprintf$5) refers to printf5.o(i._printf_core) for _printf_core
    printf5.o(i.__0vsprintf$5) refers to printf5.o(i._sputc) for _sputc
    printf5.o(i._printf_core) refers to uldiv.o(.text) for __aeabi_uldivmod
    printf6.o(i.__0fprintf$6) refers to printf6.o(i._printf_core) for _printf_core
    printf6.o(i.__0fprintf$6) refers to fputc.o(i.fputc) for fputc
    printf6.o(i.__0printf$6) refers to printf6.o(i._printf_core) for _printf_core
    printf6.o(i.__0printf$6) refers to fputc.o(i.fputc) for fputc
    printf6.o(i.__0printf$6) refers to stdout.o(.data) for __stdout
    printf6.o(i.__0snprintf$6) refers to printf6.o(i._printf_core) for _printf_core
    printf6.o(i.__0snprintf$6) refers to printf6.o(i._snputc) for _snputc
    printf6.o(i.__0sprintf$6) refers to printf6.o(i._printf_core) for _printf_core
    printf6.o(i.__0sprintf$6) refers to printf6.o(i._sputc) for _sputc
    printf6.o(i.__0vfprintf$6) refers to printf6.o(i._printf_core) for _printf_core
    printf6.o(i.__0vfprintf$6) refers to fputc.o(i.fputc) for fputc
    printf6.o(i.__0vprintf$6) refers to printf6.o(i._printf_core) for _printf_core
    printf6.o(i.__0vprintf$6) refers to fputc.o(i.fputc) for fputc
    printf6.o(i.__0vprintf$6) refers to stdout.o(.data) for __stdout
    printf6.o(i.__0vsnprintf$6) refers to printf6.o(i._printf_core) for _printf_core
    printf6.o(i.__0vsnprintf$6) refers to printf6.o(i._snputc) for _snputc
    printf6.o(i.__0vsprintf$6) refers to printf6.o(i._printf_core) for _printf_core
    printf6.o(i.__0vsprintf$6) refers to printf6.o(i._sputc) for _sputc
    printf6.o(i._printf_core) refers to printf6.o(i._printf_pre_padding) for _printf_pre_padding
    printf6.o(i._printf_core) refers to uidiv.o(.text) for __aeabi_uidivmod
    printf6.o(i._printf_core) refers to printf6.o(i._printf_post_padding) for _printf_post_padding
    printf7.o(i.__0fprintf$7) refers to printf7.o(i._printf_core) for _printf_core
    printf7.o(i.__0fprintf$7) refers to fputc.o(i.fputc) for fputc
    printf7.o(i.__0printf$7) refers to printf7.o(i._printf_core) for _printf_core
    printf7.o(i.__0printf$7) refers to fputc.o(i.fputc) for fputc
    printf7.o(i.__0printf$7) refers to stdout.o(.data) for __stdout
    printf7.o(i.__0snprintf$7) refers to printf7.o(i._printf_core) for _printf_core
    printf7.o(i.__0snprintf$7) refers to printf7.o(i._snputc) for _snputc
    printf7.o(i.__0sprintf$7) refers to printf7.o(i._printf_core) for _printf_core
    printf7.o(i.__0sprintf$7) refers to printf7.o(i._sputc) for _sputc
    printf7.o(i.__0vfprintf$7) refers to printf7.o(i._printf_core) for _printf_core
    printf7.o(i.__0vfprintf$7) refers to fputc.o(i.fputc) for fputc
    printf7.o(i.__0vprintf$7) refers to printf7.o(i._printf_core) for _printf_core
    printf7.o(i.__0vprintf$7) refers to fputc.o(i.fputc) for fputc
    printf7.o(i.__0vprintf$7) refers to stdout.o(.data) for __stdout
    printf7.o(i.__0vsnprintf$7) refers to printf7.o(i._printf_core) for _printf_core
    printf7.o(i.__0vsnprintf$7) refers to printf7.o(i._snputc) for _snputc
    printf7.o(i.__0vsprintf$7) refers to printf7.o(i._printf_core) for _printf_core
    printf7.o(i.__0vsprintf$7) refers to printf7.o(i._sputc) for _sputc
    printf7.o(i._printf_core) refers to printf7.o(i._printf_pre_padding) for _printf_pre_padding
    printf7.o(i._printf_core) refers to uldiv.o(.text) for __aeabi_uldivmod
    printf7.o(i._printf_core) refers to printf7.o(i._printf_post_padding) for _printf_post_padding
    printf8.o(i.__0fprintf$8) refers to printf8.o(i._printf_core) for _printf_core
    printf8.o(i.__0fprintf$8) refers to fputc.o(i.fputc) for fputc
    printf8.o(i.__0printf$8) refers to printf8.o(i._printf_core) for _printf_core
    printf8.o(i.__0printf$8) refers to fputc.o(i.fputc) for fputc
    printf8.o(i.__0printf$8) refers to stdout.o(.data) for __stdout
    printf8.o(i.__0snprintf$8) refers to printf8.o(i._printf_core) for _printf_core
    printf8.o(i.__0snprintf$8) refers to printf8.o(i._snputc) for _snputc
    printf8.o(i.__0sprintf$8) refers to printf8.o(i._printf_core) for _printf_core
    printf8.o(i.__0sprintf$8) refers to printf8.o(i._sputc) for _sputc
    printf8.o(i.__0vfprintf$8) refers to printf8.o(i._printf_core) for _printf_core
    printf8.o(i.__0vfprintf$8) refers to fputc.o(i.fputc) for fputc
    printf8.o(i.__0vprintf$8) refers to printf8.o(i._printf_core) for _printf_core
    printf8.o(i.__0vprintf$8) refers to fputc.o(i.fputc) for fputc
    printf8.o(i.__0vprintf$8) refers to stdout.o(.data) for __stdout
    printf8.o(i.__0vsnprintf$8) refers to printf8.o(i._printf_core) for _printf_core
    printf8.o(i.__0vsnprintf$8) refers to printf8.o(i._snputc) for _snputc
    printf8.o(i.__0vsprintf$8) refers to printf8.o(i._printf_core) for _printf_core
    printf8.o(i.__0vsprintf$8) refers to printf8.o(i._sputc) for _sputc
    printf8.o(i._printf_core) refers to printf8.o(i._printf_pre_padding) for _printf_pre_padding
    printf8.o(i._printf_core) refers to uldiv.o(.text) for __aeabi_uldivmod
    printf8.o(i._printf_core) refers to printf8.o(i._printf_post_padding) for _printf_post_padding
    printfa.o(i.__0fprintf) refers (Special) to iusefp.o(.text) for __I$use$fp
    printfa.o(i.__0fprintf) refers to printfa.o(i._printf_core) for _printf_core
    printfa.o(i.__0fprintf) refers to fputc.o(i.fputc) for fputc
    printfa.o(i.__0printf) refers (Special) to iusefp.o(.text) for __I$use$fp
    printfa.o(i.__0printf) refers to printfa.o(i._printf_core) for _printf_core
    printfa.o(i.__0printf) refers to fputc.o(i.fputc) for fputc
    printfa.o(i.__0printf) refers to stdout.o(.data) for __stdout
    printfa.o(i.__0snprintf) refers (Special) to iusefp.o(.text) for __I$use$fp
    printfa.o(i.__0snprintf) refers to printfa.o(i._printf_core) for _printf_core
    printfa.o(i.__0snprintf) refers to printfa.o(i._snputc) for _snputc
    printfa.o(i.__0sprintf) refers (Special) to iusefp.o(.text) for __I$use$fp
    printfa.o(i.__0sprintf) refers to printfa.o(i._printf_core) for _printf_core
    printfa.o(i.__0sprintf) refers to printfa.o(i._sputc) for _sputc
    printfa.o(i.__0vfprintf) refers (Special) to iusefp.o(.text) for __I$use$fp
    printfa.o(i.__0vfprintf) refers to printfa.o(i._printf_core) for _printf_core
    printfa.o(i.__0vfprintf) refers to fputc.o(i.fputc) for fputc
    printfa.o(i.__0vprintf) refers (Special) to iusefp.o(.text) for __I$use$fp
    printfa.o(i.__0vprintf) refers to printfa.o(i._printf_core) for _printf_core
    printfa.o(i.__0vprintf) refers to fputc.o(i.fputc) for fputc
    printfa.o(i.__0vprintf) refers to stdout.o(.data) for __stdout
    printfa.o(i.__0vsnprintf) refers (Special) to iusefp.o(.text) for __I$use$fp
    printfa.o(i.__0vsnprintf) refers to printfa.o(i._printf_core) for _printf_core
    printfa.o(i.__0vsnprintf) refers to printfa.o(i._snputc) for _snputc
    printfa.o(i.__0vsprintf) refers (Special) to iusefp.o(.text) for __I$use$fp
    printfa.o(i.__0vsprintf) refers to printfa.o(i._printf_core) for _printf_core
    printfa.o(i.__0vsprintf) refers to printfa.o(i._sputc) for _sputc
    printfa.o(i._fp_digits) refers (Special) to iusefp.o(.text) for __I$use$fp
    printfa.o(i._fp_digits) refers to dmul.o(.text) for __aeabi_dmul
    printfa.o(i._fp_digits) refers to ddiv.o(.text) for __aeabi_ddiv
    printfa.o(i._fp_digits) refers to cdrcmple.o(.text) for __aeabi_cdrcmple
    printfa.o(i._fp_digits) refers to dadd.o(.text) for __aeabi_dadd
    printfa.o(i._fp_digits) refers to dfixul.o(.text) for __aeabi_d2ulz
    printfa.o(i._fp_digits) refers to uldiv.o(.text) for __aeabi_uldivmod
    printfa.o(i._printf_core) refers (Special) to iusefp.o(.text) for __I$use$fp
    printfa.o(i._printf_core) refers to printfa.o(i._printf_pre_padding) for _printf_pre_padding
    printfa.o(i._printf_core) refers to uldiv.o(.text) for __aeabi_uldivmod
    printfa.o(i._printf_core) refers to printfa.o(i._printf_post_padding) for _printf_post_padding
    printfa.o(i._printf_core) refers to printfa.o(i._fp_digits) for _fp_digits
    printfa.o(i._printf_core) refers to uidiv.o(.text) for __aeabi_uidivmod
    printfa.o(i._printf_post_padding) refers (Special) to iusefp.o(.text) for __I$use$fp
    printfa.o(i._printf_pre_padding) refers (Special) to iusefp.o(.text) for __I$use$fp
    printfa.o(i._snputc) refers (Special) to iusefp.o(.text) for __I$use$fp
    printfa.o(i._sputc) refers (Special) to iusefp.o(.text) for __I$use$fp
    __0sscanf.o(.text) refers to scanf_char.o(.text) for __vfscanf_char
    __0sscanf.o(.text) refers to _sgetc.o(.text) for _sgetc
    _scanf_int.o(.text) refers to _chval.o(.text) for _chval
    entry2.o(.ARM.Collect$$$$00000001) refers to entry2.o(.ARM.Collect$$$$00002712) for __lit__00000000
    entry2.o(.ARM.Collect$$$$00002712) refers to startup_stm32f407xx.o(STACK) for __initial_sp
    entry2.o(__vectab_stack_and_reset_area) refers to startup_stm32f407xx.o(STACK) for __initial_sp
    entry2.o(__vectab_stack_and_reset_area) refers to entry.o(.ARM.Collect$$$$00000000) for __main
    entry5.o(.ARM.Collect$$$$00000004) refers to init.o(.text) for __scatterload
    fputc.o(i.fputc) refers (Special) to iusesemip.o(.text) for __I$use$semihosting$fputc
    fputc.o(i.fputc) refers (Special) to semi.o(.text) for __semihosting_library_function
    scanf_char.o(.text) refers to _scanf.o(.text) for __vfscanf
    scanf_char.o(.text) refers to isspace_c.o(.text) for isspace
    dadd.o(.text) refers to llshl.o(.text) for __aeabi_llsl
    dadd.o(.text) refers to llsshr.o(.text) for __aeabi_lasr
    dadd.o(.text) refers to depilogue.o(.text) for _double_epilogue
    dmul.o(.text) refers to depilogue.o(.text) for _double_epilogue
    ddiv.o(.text) refers to depilogue.o(.text) for _double_round
    dfixul.o(.text) refers to llushr.o(.text) for __aeabi_llsr
    dfixul.o(.text) refers to llshl.o(.text) for __aeabi_llsl
    init.o(.text) refers to entry5.o(.ARM.Collect$$$$00000004) for __main_after_scatterload
    isspace_c.o(.text) refers to ctype_c.o(.text) for __ctype_lookup
    _scanf.o(.text) refers (Weak) to _scanf_int.o(.text) for _scanf_int
    depilogue.o(.text) refers to llshl.o(.text) for __aeabi_llsl
    depilogue.o(.text) refers to llushr.o(.text) for __aeabi_llsr
    ctype_c.o(.text) refers to ctype_c.o(.constdata) for .constdata
    usbd_core_cdc.o(.ARM.RL_ARM1) refers to usbd_core_cdc.o(.ARM.RL_ARM2) for .ARM.RL_ARM2
    usbd_core_cdc.o(.ARM.RL_ARM2) refers to usbd_core_cdc.o(.ARM.RL_ARM3) for .ARM.RL_ARM3
    usbd_core_cdc.o(.ARM.RL_ARM3) refers to usbd_core_cdc.o(.ARM.RL_ARM4) for .ARM.RL_ARM4
    usbd_core_cdc.o(.ARM.RL_ARM4) refers to usbd_core_cdc.o(.ARM.RL_ARM5) for .ARM.RL_ARM5
    usbd_core_cdc.o(.ARM.RL_ARM5) refers to usbd_core_cdc.o(.ARM.RL_ARM6) for .ARM.RL_ARM6
    usbd_core_cdc.o(.ARM.RL_ARM6) refers to usbd_core_cdc.o(.ARM.RL_ARM1) for .ARM.RL_ARM1


==============================================================================

Removing Unused input sections from the image.

    Removing stm32f4xx_it.o(.rev16_text), (4 bytes).
    Removing stm32f4xx_it.o(.revsh_text), (4 bytes).
    Removing stm32f4xx_it.o(.rrx_text), (6 bytes).
    Removing main.o(.rev16_text), (4 bytes).
    Removing main.o(.revsh_text), (4 bytes).
    Removing main.o(.rrx_text), (6 bytes).
    Removing stm32f4xx_hal_msp.o(.rev16_text), (4 bytes).
    Removing stm32f4xx_hal_msp.o(.revsh_text), (4 bytes).
    Removing stm32f4xx_hal_msp.o(.rrx_text), (6 bytes).
    Removing dacfifo.o(.rev16_text), (4 bytes).
    Removing dacfifo.o(.revsh_text), (4 bytes).
    Removing dacfifo.o(.rrx_text), (6 bytes).
    Removing packetassembler.o(.rev16_text), (4 bytes).
    Removing packetassembler.o(.revsh_text), (4 bytes).
    Removing packetassembler.o(.rrx_text), (6 bytes).
    Removing packetassembler.o(.text), (182 bytes).
    Removing gpiomodule.o(.rev16_text), (4 bytes).
    Removing gpiomodule.o(.revsh_text), (4 bytes).
    Removing gpiomodule.o(.rrx_text), (6 bytes).
    Removing dactimer.o(.rev16_text), (4 bytes).
    Removing dactimer.o(.revsh_text), (4 bytes).
    Removing dactimer.o(.rrx_text), (6 bytes).
    Removing dactimer.o(.text), (68 bytes).
    Removing dactimer.o(.bss), (24 bytes).
    Removing dactimer.o(.constdata), (8 bytes).
    Removing dactimer.o(.data), (8 bytes).
    Removing dacmodule.o(.rev16_text), (4 bytes).
    Removing dacmodule.o(.revsh_text), (4 bytes).
    Removing dacmodule.o(.rrx_text), (6 bytes).
    Removing tcpthread.o(.rev16_text), (4 bytes).
    Removing tcpthread.o(.revsh_text), (4 bytes).
    Removing tcpthread.o(.rrx_text), (6 bytes).
    Removing cnclerp.o(.rev16_text), (4 bytes).
    Removing cnclerp.o(.revsh_text), (4 bytes).
    Removing cnclerp.o(.rrx_text), (6 bytes).
    Removing buttons_f4discovery.o(.rev16_text), (4 bytes).
    Removing buttons_f4discovery.o(.revsh_text), (4 bytes).
    Removing buttons_f4discovery.o(.rrx_text), (6 bytes).
    Removing buttons_f4discovery.o(.text), (108 bytes).
    Removing led_f4discovery.o(.rev16_text), (4 bytes).
    Removing led_f4discovery.o(.revsh_text), (4 bytes).
    Removing led_f4discovery.o(.rrx_text), (6 bytes).
    Removing led_f4discovery.o(.text), (192 bytes).
    Removing led_f4discovery.o(.constdata), (32 bytes).
    Removing emac_stm32f4xx.o(.rev16_text), (4 bytes).
    Removing emac_stm32f4xx.o(.revsh_text), (4 bytes).
    Removing emac_stm32f4xx.o(.rrx_text), (6 bytes).
    Removing otg_fs_stm32f4xx.o(.rev16_text), (4 bytes).
    Removing otg_fs_stm32f4xx.o(.revsh_text), (4 bytes).
    Removing otg_fs_stm32f4xx.o(.rrx_text), (6 bytes).
    Removing usart_stm32f4xx.o(.rev16_text), (4 bytes).
    Removing usart_stm32f4xx.o(.revsh_text), (4 bytes).
    Removing usart_stm32f4xx.o(.rrx_text), (6 bytes).
    Removing usbd_fs_stm32f4xx.o(.rev16_text), (4 bytes).
    Removing usbd_fs_stm32f4xx.o(.revsh_text), (4 bytes).
    Removing usbd_fs_stm32f4xx.o(.rrx_text), (6 bytes).
    Removing stm32f4xx_hal.o(.rev16_text), (4 bytes).
    Removing stm32f4xx_hal.o(.revsh_text), (4 bytes).
    Removing stm32f4xx_hal.o(.rrx_text), (6 bytes).
    Removing stm32f4xx_hal_cortex.o(.rev16_text), (4 bytes).
    Removing stm32f4xx_hal_cortex.o(.revsh_text), (4 bytes).
    Removing stm32f4xx_hal_cortex.o(.rrx_text), (6 bytes).
    Removing stm32f4xx_hal_dac.o(.rev16_text), (4 bytes).
    Removing stm32f4xx_hal_dac.o(.revsh_text), (4 bytes).
    Removing stm32f4xx_hal_dac.o(.rrx_text), (6 bytes).
    Removing stm32f4xx_hal_dac_ex.o(.rev16_text), (4 bytes).
    Removing stm32f4xx_hal_dac_ex.o(.revsh_text), (4 bytes).
    Removing stm32f4xx_hal_dac_ex.o(.rrx_text), (6 bytes).
    Removing stm32f4xx_hal_dma.o(.rev16_text), (4 bytes).
    Removing stm32f4xx_hal_dma.o(.revsh_text), (4 bytes).
    Removing stm32f4xx_hal_dma.o(.rrx_text), (6 bytes).
    Removing stm32f4xx_hal_dma_ex.o(.rev16_text), (4 bytes).
    Removing stm32f4xx_hal_dma_ex.o(.revsh_text), (4 bytes).
    Removing stm32f4xx_hal_dma_ex.o(.rrx_text), (6 bytes).
    Removing stm32f4xx_hal_dma_ex.o(.text), (370 bytes).
    Removing stm32f4xx_hal_gpio.o(.rev16_text), (4 bytes).
    Removing stm32f4xx_hal_gpio.o(.revsh_text), (4 bytes).
    Removing stm32f4xx_hal_gpio.o(.rrx_text), (6 bytes).
    Removing stm32f4xx_hal_pwr.o(.rev16_text), (4 bytes).
    Removing stm32f4xx_hal_pwr.o(.revsh_text), (4 bytes).
    Removing stm32f4xx_hal_pwr.o(.rrx_text), (6 bytes).
    Removing stm32f4xx_hal_pwr.o(.text), (524 bytes).
    Removing stm32f4xx_hal_pwr_ex.o(.rev16_text), (4 bytes).
    Removing stm32f4xx_hal_pwr_ex.o(.revsh_text), (4 bytes).
    Removing stm32f4xx_hal_pwr_ex.o(.rrx_text), (6 bytes).
    Removing stm32f4xx_hal_pwr_ex.o(.text), (304 bytes).
    Removing stm32f4xx_hal_rcc.o(.rev16_text), (4 bytes).
    Removing stm32f4xx_hal_rcc.o(.revsh_text), (4 bytes).
    Removing stm32f4xx_hal_rcc.o(.rrx_text), (6 bytes).
    Removing stm32f4xx_hal_rcc_ex.o(.rev16_text), (4 bytes).
    Removing stm32f4xx_hal_rcc_ex.o(.revsh_text), (4 bytes).
    Removing stm32f4xx_hal_rcc_ex.o(.rrx_text), (6 bytes).
    Removing stm32f4xx_hal_rcc_ex.o(.text), (504 bytes).
    Removing stm32f4xx_hal_tim.o(.rev16_text), (4 bytes).
    Removing stm32f4xx_hal_tim.o(.revsh_text), (4 bytes).
    Removing stm32f4xx_hal_tim.o(.rrx_text), (6 bytes).
    Removing stm32f4xx_hal_tim_ex.o(.rev16_text), (4 bytes).
    Removing stm32f4xx_hal_tim_ex.o(.revsh_text), (4 bytes).
    Removing stm32f4xx_hal_tim_ex.o(.rrx_text), (6 bytes).
    Removing stm32f4xx_hal_uart.o(.rev16_text), (4 bytes).
    Removing stm32f4xx_hal_uart.o(.revsh_text), (4 bytes).
    Removing stm32f4xx_hal_uart.o(.rrx_text), (6 bytes).
    Removing stm32f4xx_hal_uart.o(.text), (3940 bytes).
    Removing stm32f4xx_hal_usart.o(.rev16_text), (4 bytes).
    Removing stm32f4xx_hal_usart.o(.revsh_text), (4 bytes).
    Removing stm32f4xx_hal_usart.o(.rrx_text), (6 bytes).
    Removing stm32f4xx_hal_usart.o(.text), (3724 bytes).
    Removing startup_stm32f407xx.o(HEAP), (512 bytes).
    Removing system_stm32f4xx.o(.rev16_text), (4 bytes).
    Removing system_stm32f4xx.o(.revsh_text), (4 bytes).
    Removing system_stm32f4xx.o(.rrx_text), (6 bytes).
    Removing rt_cmsis.o(.rev16_text), (4 bytes).
    Removing rt_cmsis.o(.revsh_text), (4 bytes).
    Removing rt_cmsis.o(.rrx_text), (6 bytes).
    Removing rt_cmsis.o(i.osKernelRunning), (36 bytes).
    Removing rt_cmsis.o(i.osKernelSysTick), (24 bytes).
    Removing rt_cmsis.o(i.osMailAlloc), (32 bytes).
    Removing rt_cmsis.o(i.osMailCAlloc), (32 bytes).
    Removing rt_cmsis.o(i.osMailCreate), (48 bytes).
    Removing rt_cmsis.o(i.osMailFree), (28 bytes).
    Removing rt_cmsis.o(i.osMailGet), (22 bytes).
    Removing rt_cmsis.o(i.osMailPut), (20 bytes).
    Removing rt_cmsis.o(i.osMessageCreate), (48 bytes).
    Removing rt_cmsis.o(i.osMessagePut), (24 bytes).
    Removing rt_cmsis.o(i.osMutexDelete), (24 bytes).
    Removing rt_cmsis.o(i.osPoolAlloc), (36 bytes).
    Removing rt_cmsis.o(i.osPoolCAlloc), (36 bytes).
    Removing rt_cmsis.o(i.osPoolCreate), (48 bytes).
    Removing rt_cmsis.o(i.osPoolFree), (32 bytes).
    Removing rt_cmsis.o(i.osSemaphoreCreate), (48 bytes).
    Removing rt_cmsis.o(i.osSemaphoreDelete), (24 bytes).
    Removing rt_cmsis.o(i.osSignalClear), (24 bytes).
    Removing rt_cmsis.o(i.osThreadGetId), (24 bytes).
    Removing rt_cmsis.o(i.osThreadGetPriority), (24 bytes).
    Removing rt_cmsis.o(i.osThreadSetPriority), (24 bytes).
    Removing rt_cmsis.o(i.osThreadYield), (24 bytes).
    Removing rt_cmsis.o(i.osTimerDelete), (24 bytes).
    Removing rt_cmsis.o(i.osTimerStop), (24 bytes).
    Removing rt_cmsis.o(i.osWait), (4 bytes).
    Removing rt_cmsis.o(i.os_resume), (12 bytes).
    Removing rt_cmsis.o(i.os_suspend), (12 bytes).
    Removing rt_cmsis.o(i.rt_clr_box), (20 bytes).
    Removing rt_cmsis.o(i.svcKernelRunning), (12 bytes).
    Removing rt_cmsis.o(i.svcKernelSysTick), (56 bytes).
    Removing rt_cmsis.o(i.svcMailCreate), (66 bytes).
    Removing rt_cmsis.o(i.svcMessagePut), (54 bytes).
    Removing rt_cmsis.o(i.svcMutexDelete), (26 bytes).
    Removing rt_cmsis.o(i.svcPoolCreate), (40 bytes).
    Removing rt_cmsis.o(i.svcSemaphoreCreate), (36 bytes).
    Removing rt_cmsis.o(i.svcSemaphoreDelete), (26 bytes).
    Removing rt_cmsis.o(i.svcSignalClear), (36 bytes).
    Removing rt_cmsis.o(i.svcThreadGetPriority), (18 bytes).
    Removing rt_cmsis.o(i.svcThreadSetPriority), (46 bytes).
    Removing rt_cmsis.o(i.svcThreadYield), (10 bytes).
    Removing rt_cmsis.o(i.svcTimerDelete), (40 bytes).
    Removing rt_cmsis.o(i.svcTimerStop), (36 bytes).
    Removing rt_cmsis.o(i.sysMailAlloc), (112 bytes).
    Removing rt_cmsis.o(i.sysMailFree), (96 bytes).
    Removing rt_cmsis.o(i.sysPoolAlloc), (32 bytes).
    Removing rt_cmsis.o(i.sysPoolFree), (20 bytes).
    Removing rt_cmsis.o(i.sysUserTimerUpdate), (48 bytes).
    Removing rt_cmsis.o(i.sysUserTimerWakeupTime), (20 bytes).
    Removing net_eth.o(i.eth_get_addr), (4 bytes).
    Removing net_eth.o(i.eth_set_filter), (140 bytes).
    Removing net_arp.o(i.arp_cache_ip), (60 bytes).
    Removing net_arp.o(i.arp_cache_mac), (140 bytes).
    Removing net_arp.o(i.arp_get_hwadr), (52 bytes).
    Removing net_arp.o(i.arp_get_ip), (72 bytes).
    Removing net_arp.o(i.arp_get_mac), (34 bytes).
    Removing net_arp.o(i.arp_probe), (20 bytes).
    Removing net_icmp.o(i.icmp_ping), (92 bytes).
    Removing net_tcp.o(i.tcp_abort), (88 bytes).
    Removing net_tcp.o(i.tcp_close), (160 bytes).
    Removing net_tcp.o(i.tcp_connect), (172 bytes).
    Removing net_tcp.o(i.tcp_get_addr), (40 bytes).
    Removing net_tcp.o(i.tcp_get_free_port), (68 bytes).
    Removing net_tcp.o(i.tcp_get_state), (40 bytes).
    Removing net_tcp.o(i.tcp_ioctl_socket), (60 bytes).
    Removing net_tcp.o(i.tcp_no_ack), (12 bytes).
    Removing net_tcp.o(i.tcp_ntoa), (12 bytes).
    Removing net_tcp.o(i.tcp_release_socket), (60 bytes).
    Removing net_tcp.o(i.tcp_reset_tout), (44 bytes).
    Removing net_tcp.o(i.tcp_reset_window), (80 bytes).
    Removing net_sys.o(.emb_text), (0 bytes).
    Removing usbd_core.o(.emb_text), (0 bytes).
    Removing usbd_core.o(i.USBD1_CoreThread), (6 bytes).
    Removing usbd_core.o(i.USBD2_CoreThread), (6 bytes).
    Removing usbd_core.o(i.USBD3_CoreThread), (6 bytes).
    Removing usbd_core.o(i.USBD_Configured), (32 bytes).
    Removing usbd_core.o(i.USBD_Connect), (24 bytes).
    Removing usbd_core.o(i.USBD_Disconnect), (24 bytes).
    Removing usbd_core.o(i.USBD_DriverDeviceConnect), (64 bytes).
    Removing usbd_core.o(i.USBD_DriverDeviceDisconnect), (64 bytes).
    Removing usbd_core.o(i.USBD_DriverDeviceGetState), (56 bytes).
    Removing usbd_core.o(i.USBD_DriverDeviceRemoteWakeup), (64 bytes).
    Removing usbd_core.o(i.USBD_DriverGetCapabilities), (16 bytes).
    Removing usbd_core.o(i.USBD_DriverGetFrameNumber), (56 bytes).
    Removing usbd_core.o(i.USBD_DriverGetVersion), (16 bytes).
    Removing usbd_core.o(i.USBD_DriverInitialize), (76 bytes).
    Removing usbd_core.o(i.USBD_DriverPowerControl), (68 bytes).
    Removing usbd_core.o(i.USBD_DriverUninitialize), (64 bytes).
    Removing usbd_core.o(i.USBD_EndpointAbort), (28 bytes).
    Removing usbd_core.o(i.USBD_EndpointRead), (34 bytes).
    Removing usbd_core.o(i.USBD_EndpointReadGetResult), (28 bytes).
    Removing usbd_core.o(i.USBD_EndpointWrite), (36 bytes).
    Removing usbd_core.o(i.USBD_EndpointWriteGetResult), (30 bytes).
    Removing usbd_core.o(i.USBD_Initialize), (188 bytes).
    Removing usbd_core.o(i.USBD_Uninitialize), (320 bytes).
    Removing usbd_cdc.o(i.USBD_CDC1_Bulk_Thread), (6 bytes).
    Removing usbd_cdc.o(i.USBD_CDC1_Int_Thread), (6 bytes).
    Removing usbd_cdc.o(i.USBD_CDC2_Bulk_Thread), (6 bytes).
    Removing usbd_cdc.o(i.USBD_CDC2_Int_Thread), (6 bytes).
    Removing usbd_cdc.o(i.USBD_CDC3_Bulk_Thread), (6 bytes).
    Removing usbd_cdc.o(i.USBD_CDC3_Int_Thread), (6 bytes).
    Removing usbd_cdc.o(i.USBD_CDC_ACM_DataAvailable), (36 bytes).
    Removing usbd_cdc.o(i.USBD_CDC_ACM_GetChar), (26 bytes).
    Removing usbd_cdc.o(i.USBD_CDC_ACM_Notify), (144 bytes).
    Removing usbd_cdc.o(i.USBD_CDC_ACM_PutChar), (24 bytes).
    Removing usbd_cdc.o(i.USBD_CDC_ACM_ReadData), (200 bytes).
    Removing rt_task.o(i.rt_tsk_pass), (48 bytes).
    Removing rt_system.o(.emb_text), (0 bytes).
    Removing rt_system.o(i.os_tick_init), (40 bytes).
    Removing rt_system.o(i.os_tick_irqack), (2 bytes).
    Removing rt_system.o(i.os_tick_ovf), (16 bytes).
    Removing rt_system.o(i.os_tick_val), (20 bytes).
    Removing rt_system.o(i.rt_resume), (136 bytes).
    Removing rt_system.o(i.rt_suspend), (36 bytes).
    Removing rt_system.o(i.rt_tsk_lock), (80 bytes).
    Removing rt_system.o(i.rt_tsk_unlock), (80 bytes).
    Removing rt_event.o(i.rt_evt_clr), (28 bytes).
    Removing rt_event.o(i.rt_evt_get), (12 bytes).
    Removing rt_list.o(i.rt_get_same_rdy_prio), (36 bytes).
    Removing rt_mailbox.o(i.rt_mbx_send), (152 bytes).
    Removing rt_semaphore.o(i.rt_sem_delete), (92 bytes).
    Removing rt_semaphore.o(i.rt_sem_init), (12 bytes).
    Removing rt_time.o(i.rt_itv_set), (24 bytes).
    Removing rt_time.o(i.rt_itv_wait), (40 bytes).
    Removing rt_time.o(i.rt_time_get), (12 bytes).
    Removing rt_mutex.o(i.rt_mut_delete), (176 bytes).
    Removing rt_membox.o(i._calloc_box), (30 bytes).
    Removing net_common.o(i.asc_to_b64), (64 bytes).
    Removing net_common.o(i.b64_to_asc), (122 bytes).
    Removing net_common.o(i.bin_to_b64), (66 bytes).
    Removing net_common.o(i.encode_b64), (76 bytes).
    Removing net_common.o(i.str_copy), (18 bytes).
    Removing net_common.o(i.str_crc32), (28 bytes).
    Removing net_common.o(i.str_pos), (22 bytes).
    Removing net_common.o(i.str_scomp), (26 bytes).
    Removing net_common.o(i.str_ucomp), (46 bytes).
    Removing net_common.o(i.str_up_case), (26 bytes).
    Removing net_addr4.o(i.ip4_aton), (104 bytes).
    Removing net_addr4.o(i.ip4_ntoa), (56 bytes).
    Removing net_addr4.o(i.mac_aton), (124 bytes).
    Removing net_addr4.o(i.mac_ntoa), (76 bytes).
    Removing net_addr4.o(.bss), (34 bytes).
    Removing net_version.o(.emb_text), (0 bytes).
    Removing usb_version.o(.emb_text), (0 bytes).
    Removing dadd.o(.text), (334 bytes).
    Removing dmul.o(.text), (228 bytes).
    Removing ddiv.o(.text), (222 bytes).
    Removing dfixul.o(.text), (48 bytes).
    Removing cdrcmple.o(.text), (48 bytes).
    Removing depilogue.o(.text), (186 bytes).
    Removing usbd_core_cdc.o(.ARM.RL_ARM1), (82 bytes).
    Removing usbd_core_cdc.o(.ARM.RL_ARM2), (76 bytes).
    Removing usbd_core_cdc.o(.ARM.RL_ARM3), (45 bytes).
    Removing usbd_core_cdc.o(.ARM.RL_ARM4), (65 bytes).
    Removing usbd_core_cdc.o(.ARM.RL_ARM5), (82 bytes).
    Removing usbd_core_cdc.o(.ARM.RL_ARM6), (77 bytes).

269 unused section(s) (total 19245 bytes) removed from the image.

==============================================================================

Image Symbol Table

    Local Symbols

    Symbol Name                              Value     Ov Type        Size  Object(Section)

    ../clib/../cmprslib/zerorunl2.c          0x00000000   Number         0  __dczerorl2.o ABSOLUTE
    ../clib/microlib/ctype/ctype.c           0x00000000   Number         0  ctype_c.o ABSOLUTE
    ../clib/microlib/ctype/ctype.c           0x00000000   Number         0  isspace_c.o ABSOLUTE
    ../clib/microlib/division.c              0x00000000   Number         0  uidiv.o ABSOLUTE
    ../clib/microlib/division.c              0x00000000   Number         0  uldiv.o ABSOLUTE
    ../clib/microlib/init/entry.s            0x00000000   Number         0  entry7b.o ABSOLUTE
    ../clib/microlib/init/entry.s            0x00000000   Number         0  entry8a.o ABSOLUTE
    ../clib/microlib/init/entry.s            0x00000000   Number         0  entry11b.o ABSOLUTE
    ../clib/microlib/init/entry.s            0x00000000   Number         0  entry10b.o ABSOLUTE
    ../clib/microlib/init/entry.s            0x00000000   Number         0  entry10a.o ABSOLUTE
    ../clib/microlib/init/entry.s            0x00000000   Number         0  entry8b.o ABSOLUTE
    ../clib/microlib/init/entry.s            0x00000000   Number         0  entry.o ABSOLUTE
    ../clib/microlib/init/entry.s            0x00000000   Number         0  entry11a.o ABSOLUTE
    ../clib/microlib/init/entry.s            0x00000000   Number         0  entry2.o ABSOLUTE
    ../clib/microlib/init/entry.s            0x00000000   Number         0  entry5.o ABSOLUTE
    ../clib/microlib/init/entry.s            0x00000000   Number         0  entry7a.o ABSOLUTE
    ../clib/microlib/longlong.c              0x00000000   Number         0  llsshr.o ABSOLUTE
    ../clib/microlib/longlong.c              0x00000000   Number         0  llushr.o ABSOLUTE
    ../clib/microlib/longlong.c              0x00000000   Number         0  llshl.o ABSOLUTE
    ../clib/microlib/printf/printf.c         0x00000000   Number         0  printf8.o ABSOLUTE
    ../clib/microlib/printf/printf.c         0x00000000   Number         0  printf7.o ABSOLUTE
    ../clib/microlib/printf/printf.c         0x00000000   Number         0  printf6.o ABSOLUTE
    ../clib/microlib/printf/printf.c         0x00000000   Number         0  printf5.o ABSOLUTE
    ../clib/microlib/printf/printf.c         0x00000000   Number         0  printf4.o ABSOLUTE
    ../clib/microlib/printf/printf.c         0x00000000   Number         0  printfb.o ABSOLUTE
    ../clib/microlib/printf/printf.c         0x00000000   Number         0  printf0.o ABSOLUTE
    ../clib/microlib/printf/printf.c         0x00000000   Number         0  printf3.o ABSOLUTE
    ../clib/microlib/printf/printf.c         0x00000000   Number         0  printf2.o ABSOLUTE
    ../clib/microlib/printf/printf.c         0x00000000   Number         0  printfa.o ABSOLUTE
    ../clib/microlib/printf/printf.c         0x00000000   Number         0  printf1.o ABSOLUTE
    ../clib/microlib/printf/stubs.s          0x00000000   Number         0  stubs.o ABSOLUTE
    ../clib/microlib/stdio/fputc.c           0x00000000   Number         0  fputc.o ABSOLUTE
    ../clib/microlib/stdio/semi.s            0x00000000   Number         0  semi.o ABSOLUTE
    ../clib/microlib/stdio/streams.c         0x00000000   Number         0  stdout.o ABSOLUTE
    ../clib/microlib/string/memcpy.c         0x00000000   Number         0  memcpyb.o ABSOLUTE
    ../clib/microlib/string/memcpy.c         0x00000000   Number         0  memcpya.o ABSOLUTE
    ../clib/microlib/string/memset.c         0x00000000   Number         0  memseta.o ABSOLUTE
    ../clib/microlib/string/strlen.c         0x00000000   Number         0  strlen.o ABSOLUTE
    ../clib/microlib/stubs.s                 0x00000000   Number         0  iusesemip.o ABSOLUTE
    ../clib/microlib/stubs.s                 0x00000000   Number         0  iusefp.o ABSOLUTE
    ../clib/scanf.c                          0x00000000   Number         0  _scanf_int.o ABSOLUTE
    ../clib/scanf.c                          0x00000000   Number         0  __0sscanf.o ABSOLUTE
    ../clib/scanf.c                          0x00000000   Number         0  scanf_char.o ABSOLUTE
    ../clib/scanf.c                          0x00000000   Number         0  _sgetc.o ABSOLUTE
    ../clib/scanf.c                          0x00000000   Number         0  _chval.o ABSOLUTE
    ../clib/scanf.c                          0x00000000   Number         0  _scanf.o ABSOLUTE
    ../fplib/microlib/fpadd.c                0x00000000   Number         0  dadd.o ABSOLUTE
    ../fplib/microlib/fpdiv.c                0x00000000   Number         0  ddiv.o ABSOLUTE
    ../fplib/microlib/fpepilogue.c           0x00000000   Number         0  depilogue.o ABSOLUTE
    ../fplib/microlib/fpfix.c                0x00000000   Number         0  dfixul.o ABSOLUTE
    ../fplib/microlib/fpmul.c                0x00000000   Number         0  dmul.o ABSOLUTE
    ..\HAL_CM.c                              0x00000000   Number         0  hal_cm.o ABSOLUTE
    ..\\rt_CMSIS.c                           0x00000000   Number         0  rt_cmsis.o ABSOLUTE
    ..\\rt_System.c                          0x00000000   Number         0  rt_system.o ABSOLUTE
    ..\rt_CMSIS.c                            0x00000000   Number         0  rt_cmsis.o ABSOLUTE
    ..\rt_Event.c                            0x00000000   Number         0  rt_event.o ABSOLUTE
    ..\rt_List.c                             0x00000000   Number         0  rt_list.o ABSOLUTE
    ..\rt_Mailbox.c                          0x00000000   Number         0  rt_mailbox.o ABSOLUTE
    ..\rt_MemBox.c                           0x00000000   Number         0  rt_membox.o ABSOLUTE
    ..\rt_Memory.c                           0x00000000   Number         0  rt_memory.o ABSOLUTE
    ..\rt_Mutex.c                            0x00000000   Number         0  rt_mutex.o ABSOLUTE
    ..\rt_Robin.c                            0x00000000   Number         0  rt_robin.o ABSOLUTE
    ..\rt_Semaphore.c                        0x00000000   Number         0  rt_semaphore.o ABSOLUTE
    ..\rt_System.c                           0x00000000   Number         0  rt_system.o ABSOLUTE
    ..\rt_Task.c                             0x00000000   Number         0  rt_task.o ABSOLUTE
    ..\rt_Time.c                             0x00000000   Number         0  rt_time.o ABSOLUTE
    C:\Keil_v5\ARM\PACK\Keil\MDK-Middleware\6.4.0\Network\Driver\PHY_LAN8720.c 0x00000000   Number         0  phy_lan8720.o ABSOLUTE
    C:\Keil_v5\ARM\PACK\Keil\STM32F4xx_DFP\2.5.0\CMSIS\Driver\EMAC_STM32F4xx.c 0x00000000   Number         0  emac_stm32f4xx.o ABSOLUTE
    C:\Keil_v5\ARM\PACK\Keil\STM32F4xx_DFP\2.5.0\CMSIS\Driver\OTG_FS_STM32F4xx.c 0x00000000   Number         0  otg_fs_stm32f4xx.o ABSOLUTE
    C:\Keil_v5\ARM\PACK\Keil\STM32F4xx_DFP\2.5.0\CMSIS\Driver\USART_STM32F4xx.c 0x00000000   Number         0  usart_stm32f4xx.o ABSOLUTE
    C:\Keil_v5\ARM\PACK\Keil\STM32F4xx_DFP\2.5.0\CMSIS\Driver\USBD_FS_STM32F4xx.c 0x00000000   Number         0  usbd_fs_stm32f4xx.o ABSOLUTE
    C:\Keil_v5\ARM\PACK\Keil\STM32F4xx_DFP\2.5.0\Drivers\STM32F4xx_HAL_Driver\Src\stm32f4xx_hal.c 0x00000000   Number         0  stm32f4xx_hal.o ABSOLUTE
    C:\Keil_v5\ARM\PACK\Keil\STM32F4xx_DFP\2.5.0\Drivers\STM32F4xx_HAL_Driver\Src\stm32f4xx_hal_cortex.c 0x00000000   Number         0  stm32f4xx_hal_cortex.o ABSOLUTE
    C:\Keil_v5\ARM\PACK\Keil\STM32F4xx_DFP\2.5.0\Drivers\STM32F4xx_HAL_Driver\Src\stm32f4xx_hal_dac.c 0x00000000   Number         0  stm32f4xx_hal_dac.o ABSOLUTE
    C:\Keil_v5\ARM\PACK\Keil\STM32F4xx_DFP\2.5.0\Drivers\STM32F4xx_HAL_Driver\Src\stm32f4xx_hal_dac_ex.c 0x00000000   Number         0  stm32f4xx_hal_dac_ex.o ABSOLUTE
    C:\Keil_v5\ARM\PACK\Keil\STM32F4xx_DFP\2.5.0\Drivers\STM32F4xx_HAL_Driver\Src\stm32f4xx_hal_dma.c 0x00000000   Number         0  stm32f4xx_hal_dma.o ABSOLUTE
    C:\Keil_v5\ARM\PACK\Keil\STM32F4xx_DFP\2.5.0\Drivers\STM32F4xx_HAL_Driver\Src\stm32f4xx_hal_dma_ex.c 0x00000000   Number         0  stm32f4xx_hal_dma_ex.o ABSOLUTE
    C:\Keil_v5\ARM\PACK\Keil\STM32F4xx_DFP\2.5.0\Drivers\STM32F4xx_HAL_Driver\Src\stm32f4xx_hal_gpio.c 0x00000000   Number         0  stm32f4xx_hal_gpio.o ABSOLUTE
    C:\Keil_v5\ARM\PACK\Keil\STM32F4xx_DFP\2.5.0\Drivers\STM32F4xx_HAL_Driver\Src\stm32f4xx_hal_pwr.c 0x00000000   Number         0  stm32f4xx_hal_pwr.o ABSOLUTE
    C:\Keil_v5\ARM\PACK\Keil\STM32F4xx_DFP\2.5.0\Drivers\STM32F4xx_HAL_Driver\Src\stm32f4xx_hal_pwr_ex.c 0x00000000   Number         0  stm32f4xx_hal_pwr_ex.o ABSOLUTE
    C:\Keil_v5\ARM\PACK\Keil\STM32F4xx_DFP\2.5.0\Drivers\STM32F4xx_HAL_Driver\Src\stm32f4xx_hal_rcc.c 0x00000000   Number         0  stm32f4xx_hal_rcc.o ABSOLUTE
    C:\Keil_v5\ARM\PACK\Keil\STM32F4xx_DFP\2.5.0\Drivers\STM32F4xx_HAL_Driver\Src\stm32f4xx_hal_rcc_ex.c 0x00000000   Number         0  stm32f4xx_hal_rcc_ex.o ABSOLUTE
    C:\Keil_v5\ARM\PACK\Keil\STM32F4xx_DFP\2.5.0\Drivers\STM32F4xx_HAL_Driver\Src\stm32f4xx_hal_tim.c 0x00000000   Number         0  stm32f4xx_hal_tim.o ABSOLUTE
    C:\Keil_v5\ARM\PACK\Keil\STM32F4xx_DFP\2.5.0\Drivers\STM32F4xx_HAL_Driver\Src\stm32f4xx_hal_tim_ex.c 0x00000000   Number         0  stm32f4xx_hal_tim_ex.o ABSOLUTE
    C:\Keil_v5\ARM\PACK\Keil\STM32F4xx_DFP\2.5.0\Drivers\STM32F4xx_HAL_Driver\Src\stm32f4xx_hal_uart.c 0x00000000   Number         0  stm32f4xx_hal_uart.o ABSOLUTE
    C:\Keil_v5\ARM\PACK\Keil\STM32F4xx_DFP\2.5.0\Drivers\STM32F4xx_HAL_Driver\Src\stm32f4xx_hal_usart.c 0x00000000   Number         0  stm32f4xx_hal_usart.o ABSOLUTE
    C:\Keil_v5\ARM\PACK\Keil\STM32F4xx_DFP\2.5.0\MDK\Boards\ST\STM32F4-Discovery\Common\Buttons_F4Discovery.c 0x00000000   Number         0  buttons_f4discovery.o ABSOLUTE
    C:\Keil_v5\ARM\PACK\Keil\STM32F4xx_DFP\2.5.0\MDK\Boards\ST\STM32F4-Discovery\Common\LED_F4Discovery.c 0x00000000   Number         0  led_f4discovery.o ABSOLUTE
    C:\\Keil_v5\\ARM\\PACK\\Keil\\STM32F4xx_DFP\\2.5.0\\CMSIS\\Driver\\EMAC_STM32F4xx.c 0x00000000   Number         0  emac_stm32f4xx.o ABSOLUTE
    C:\\Keil_v5\\ARM\\PACK\\Keil\\STM32F4xx_DFP\\2.5.0\\CMSIS\\Driver\\OTG_FS_STM32F4xx.c 0x00000000   Number         0  otg_fs_stm32f4xx.o ABSOLUTE
    C:\\Keil_v5\\ARM\\PACK\\Keil\\STM32F4xx_DFP\\2.5.0\\CMSIS\\Driver\\USART_STM32F4xx.c 0x00000000   Number         0  usart_stm32f4xx.o ABSOLUTE
    C:\\Keil_v5\\ARM\\PACK\\Keil\\STM32F4xx_DFP\\2.5.0\\CMSIS\\Driver\\USBD_FS_STM32F4xx.c 0x00000000   Number         0  usbd_fs_stm32f4xx.o ABSOLUTE
    C:\\Keil_v5\\ARM\\PACK\\Keil\\STM32F4xx_DFP\\2.5.0\\Drivers\\STM32F4xx_HAL_Driver\\Src\\stm32f4xx_hal.c 0x00000000   Number         0  stm32f4xx_hal.o ABSOLUTE
    C:\\Keil_v5\\ARM\\PACK\\Keil\\STM32F4xx_DFP\\2.5.0\\Drivers\\STM32F4xx_HAL_Driver\\Src\\stm32f4xx_hal_cortex.c 0x00000000   Number         0  stm32f4xx_hal_cortex.o ABSOLUTE
    C:\\Keil_v5\\ARM\\PACK\\Keil\\STM32F4xx_DFP\\2.5.0\\Drivers\\STM32F4xx_HAL_Driver\\Src\\stm32f4xx_hal_dac.c 0x00000000   Number         0  stm32f4xx_hal_dac.o ABSOLUTE
    C:\\Keil_v5\\ARM\\PACK\\Keil\\STM32F4xx_DFP\\2.5.0\\Drivers\\STM32F4xx_HAL_Driver\\Src\\stm32f4xx_hal_dac_ex.c 0x00000000   Number         0  stm32f4xx_hal_dac_ex.o ABSOLUTE
    C:\\Keil_v5\\ARM\\PACK\\Keil\\STM32F4xx_DFP\\2.5.0\\Drivers\\STM32F4xx_HAL_Driver\\Src\\stm32f4xx_hal_dma.c 0x00000000   Number         0  stm32f4xx_hal_dma.o ABSOLUTE
    C:\\Keil_v5\\ARM\\PACK\\Keil\\STM32F4xx_DFP\\2.5.0\\Drivers\\STM32F4xx_HAL_Driver\\Src\\stm32f4xx_hal_dma_ex.c 0x00000000   Number         0  stm32f4xx_hal_dma_ex.o ABSOLUTE
    C:\\Keil_v5\\ARM\\PACK\\Keil\\STM32F4xx_DFP\\2.5.0\\Drivers\\STM32F4xx_HAL_Driver\\Src\\stm32f4xx_hal_gpio.c 0x00000000   Number         0  stm32f4xx_hal_gpio.o ABSOLUTE
    C:\\Keil_v5\\ARM\\PACK\\Keil\\STM32F4xx_DFP\\2.5.0\\Drivers\\STM32F4xx_HAL_Driver\\Src\\stm32f4xx_hal_pwr.c 0x00000000   Number         0  stm32f4xx_hal_pwr.o ABSOLUTE
    C:\\Keil_v5\\ARM\\PACK\\Keil\\STM32F4xx_DFP\\2.5.0\\Drivers\\STM32F4xx_HAL_Driver\\Src\\stm32f4xx_hal_pwr_ex.c 0x00000000   Number         0  stm32f4xx_hal_pwr_ex.o ABSOLUTE
    C:\\Keil_v5\\ARM\\PACK\\Keil\\STM32F4xx_DFP\\2.5.0\\Drivers\\STM32F4xx_HAL_Driver\\Src\\stm32f4xx_hal_rcc.c 0x00000000   Number         0  stm32f4xx_hal_rcc.o ABSOLUTE
    C:\\Keil_v5\\ARM\\PACK\\Keil\\STM32F4xx_DFP\\2.5.0\\Drivers\\STM32F4xx_HAL_Driver\\Src\\stm32f4xx_hal_rcc_ex.c 0x00000000   Number         0  stm32f4xx_hal_rcc_ex.o ABSOLUTE
    C:\\Keil_v5\\ARM\\PACK\\Keil\\STM32F4xx_DFP\\2.5.0\\Drivers\\STM32F4xx_HAL_Driver\\Src\\stm32f4xx_hal_tim.c 0x00000000   Number         0  stm32f4xx_hal_tim.o ABSOLUTE
    C:\\Keil_v5\\ARM\\PACK\\Keil\\STM32F4xx_DFP\\2.5.0\\Drivers\\STM32F4xx_HAL_Driver\\Src\\stm32f4xx_hal_tim_ex.c 0x00000000   Number         0  stm32f4xx_hal_tim_ex.o ABSOLUTE
    C:\\Keil_v5\\ARM\\PACK\\Keil\\STM32F4xx_DFP\\2.5.0\\Drivers\\STM32F4xx_HAL_Driver\\Src\\stm32f4xx_hal_uart.c 0x00000000   Number         0  stm32f4xx_hal_uart.o ABSOLUTE
    C:\\Keil_v5\\ARM\\PACK\\Keil\\STM32F4xx_DFP\\2.5.0\\Drivers\\STM32F4xx_HAL_Driver\\Src\\stm32f4xx_hal_usart.c 0x00000000   Number         0  stm32f4xx_hal_usart.o ABSOLUTE
    C:\\Keil_v5\\ARM\\PACK\\Keil\\STM32F4xx_DFP\\2.5.0\\MDK\\Boards\\ST\\STM32F4-Discovery\\Common\\Buttons_F4Discovery.c 0x00000000   Number         0  buttons_f4discovery.o ABSOLUTE
    C:\\Keil_v5\\ARM\\PACK\\Keil\\STM32F4xx_DFP\\2.5.0\\MDK\\Boards\\ST\\STM32F4-Discovery\\Common\\LED_F4Discovery.c 0x00000000   Number         0  led_f4discovery.o ABSOLUTE
    CNCLerp.c                                0x00000000   Number         0  cnclerp.o ABSOLUTE
    CNCLerp.c                                0x00000000   Number         0  cnclerp.o ABSOLUTE
    DACFIFO.c                                0x00000000   Number         0  dacfifo.o ABSOLUTE
    DACFIFO.c                                0x00000000   Number         0  dacfifo.o ABSOLUTE
    DACModule.c                              0x00000000   Number         0  dacmodule.o ABSOLUTE
    DACModule.c                              0x00000000   Number         0  dacmodule.o ABSOLUTE
    DACTimer.c                               0x00000000   Number         0  dactimer.o ABSOLUTE
    DACTimer.c                               0x00000000   Number         0  dactimer.o ABSOLUTE
    GPIOModule.c                             0x00000000   Number         0  gpiomodule.o ABSOLUTE
    GPIOModule.c                             0x00000000   Number         0  gpiomodule.o ABSOLUTE
    HAL_CM4.c                                0x00000000   Number         0  hal_cm4.o ABSOLUTE
    HAL_CM4.c                                0x00000000   Number         0  hal_cm4.o ABSOLUTE
    PacketAssembler.c                        0x00000000   Number         0  packetassembler.o ABSOLUTE
    PacketAssembler.c                        0x00000000   Number         0  packetassembler.o ABSOLUTE
    RL_ARM.s                                 0x00000000   Number         0  net_tcp.o ABSOLUTE
    RL_ARM.s                                 0x00000000   Number         0  net_icmp.o ABSOLUTE
    RL_ARM.s                                 0x00000000   Number         0  net_ip.o ABSOLUTE
    RL_ARM.s                                 0x00000000   Number         0  net_arp.o ABSOLUTE
    RL_ARM.s                                 0x00000000   Number         0  net_eth.o ABSOLUTE
    RL_ARM.s                                 0x00000000   Number         0  net_sys.o ABSOLUTE
    RL_ARM.s                                 0x00000000   Number         0  usbd_core.o ABSOLUTE
    RL_ARM.s                                 0x00000000   Number         0  usbd_cdc.o ABSOLUTE
    RL_ARM.s                                 0x00000000   Number         0  usbd_core_cdc.o ABSOLUTE
    RL_ARM.s                                 0x00000000   Number         0  net_addr4.o ABSOLUTE
    RL_ARM.s                                 0x00000000   Number         0  usb_version.o ABSOLUTE
    RL_ARM.s                                 0x00000000   Number         0  net_version.o ABSOLUTE
    RL_ARM.s                                 0x00000000   Number         0  net_common.o ABSOLUTE
    RL_ARM.s                                 0x00000000   Number         0  net_mem.o ABSOLUTE
    RTE\CMSIS\RTX_Conf_CM.c                  0x00000000   Number         0  rtx_conf_cm.o ABSOLUTE
    RTE\Device\STM32F407VGTx\startup_stm32f407xx.s 0x00000000   Number         0  startup_stm32f407xx.o ABSOLUTE
    RTE\Device\STM32F407VGTx\system_stm32f4xx.c 0x00000000   Number         0  system_stm32f4xx.o ABSOLUTE
    RTE\Network\Net_Config.c                 0x00000000   Number         0  net_config.o ABSOLUTE
    RTE\USB\USBD_Config_0.c                  0x00000000   Number         0  usbd_config_0.o ABSOLUTE
    RTE\\Device\\STM32F407VGTx\\system_stm32f4xx.c 0x00000000   Number         0  system_stm32f4xx.o ABSOLUTE
    SRC\\net_sys.c                           0x00000000   Number         0  net_sys.o ABSOLUTE
    SRC\\net_version.c                       0x00000000   Number         0  net_version.o ABSOLUTE
    SRC\\usb_version.c                       0x00000000   Number         0  usb_version.o ABSOLUTE
    SRC\\usbd_core.c                         0x00000000   Number         0  usbd_core.o ABSOLUTE
    SRC\net_addr4.c                          0x00000000   Number         0  net_addr4.o ABSOLUTE
    SRC\net_arp.c                            0x00000000   Number         0  net_arp.o ABSOLUTE
    SRC\net_common.c                         0x00000000   Number         0  net_common.o ABSOLUTE
    SRC\net_eth.c                            0x00000000   Number         0  net_eth.o ABSOLUTE
    SRC\net_icmp.c                           0x00000000   Number         0  net_icmp.o ABSOLUTE
    SRC\net_ip.c                             0x00000000   Number         0  net_ip.o ABSOLUTE
    SRC\net_mem.c                            0x00000000   Number         0  net_mem.o ABSOLUTE
    SRC\net_sys.c                            0x00000000   Number         0  net_sys.o ABSOLUTE
    SRC\net_tcp.c                            0x00000000   Number         0  net_tcp.o ABSOLUTE
    SRC\net_version.c                        0x00000000   Number         0  net_version.o ABSOLUTE
    SRC\usb_version.c                        0x00000000   Number         0  usb_version.o ABSOLUTE
    SRC\usbd_cdc.c                           0x00000000   Number         0  usbd_cdc.o ABSOLUTE
    SRC\usbd_core.c                          0x00000000   Number         0  usbd_core.o ABSOLUTE
    SRC\usbd_core_cdc.c                      0x00000000   Number         0  usbd_core_cdc.o ABSOLUTE
    SVC_Table.s                              0x00000000   Number         0  svc_table.o ABSOLUTE
    TCPThread.c                              0x00000000   Number         0  tcpthread.o ABSOLUTE
    TCPThread.c                              0x00000000   Number         0  tcpthread.o ABSOLUTE
    USBD_User_CDC_0.c                        0x00000000   Number         0  usbd_user_cdc_0.o ABSOLUTE
    cdrcmple.s                               0x00000000   Number         0  cdrcmple.o ABSOLUTE
    dc.s                                     0x00000000   Number         0  dc.o ABSOLUTE
    handlers.s                               0x00000000   Number         0  handlers.o ABSOLUTE
    init.s                                   0x00000000   Number         0  init.o ABSOLUTE
    main.c                                   0x00000000   Number         0  main.o ABSOLUTE
    main.c                                   0x00000000   Number         0  main.o ABSOLUTE
    stm32f4xx_hal_msp.c                      0x00000000   Number         0  stm32f4xx_hal_msp.o ABSOLUTE
    stm32f4xx_hal_msp.c                      0x00000000   Number         0  stm32f4xx_hal_msp.o ABSOLUTE
    stm32f4xx_it.c                           0x00000000   Number         0  stm32f4xx_it.o ABSOLUTE
    stm32f4xx_it.c                           0x00000000   Number         0  stm32f4xx_it.o ABSOLUTE
    RESET                                    0x08000000   Section      392  startup_stm32f407xx.o(RESET)
    .ARM.Collect$$$$00000000                 0x08000188   Section        0  entry.o(.ARM.Collect$$$$00000000)
    .ARM.Collect$$$$00000001                 0x08000188   Section        4  entry2.o(.ARM.Collect$$$$00000001)
    .ARM.Collect$$$$00000004                 0x0800018c   Section        4  entry5.o(.ARM.Collect$$$$00000004)
    .ARM.Collect$$$$00000008                 0x08000190   Section        0  entry7b.o(.ARM.Collect$$$$00000008)
    .ARM.Collect$$$$0000000A                 0x08000190   Section        0  entry8b.o(.ARM.Collect$$$$0000000A)
    .ARM.Collect$$$$0000000D                 0x08000190   Section        0  entry10a.o(.ARM.Collect$$$$0000000D)
    .ARM.Collect$$$$0000000F                 0x08000190   Section        0  entry11a.o(.ARM.Collect$$$$0000000F)
    .ARM.Collect$$$$000000FF                 0x08000190   Section        0  rtx_conf_cm.o(.ARM.Collect$$$$000000FF)
    .ARM.Collect$$$$00002712                 0x080001a8   Section        4  entry2.o(.ARM.Collect$$$$00002712)
    __lit__00000000                          0x080001a8   Data           4  entry2.o(.ARM.Collect$$$$00002712)
    .emb_text                                0x080001ac   Section      384  hal_cm4.o(.emb_text)
    $v0                                      0x080001ac   Number         0  hal_cm4.o(.emb_text)
    .text                                    0x0800032c   Section        0  stm32f4xx_it.o(.text)
    .text                                    0x08000358   Section        0  main.o(.text)
    .text                                    0x080004b8   Section        0  stm32f4xx_hal_msp.o(.text)
    .text                                    0x080004cc   Section        0  dacfifo.o(.text)
    .text                                    0x08000674   Section        0  gpiomodule.o(.text)
    .text                                    0x08000700   Section        0  dacmodule.o(.text)
    .text                                    0x08000b7c   Section        0  usbd_user_cdc_0.o(.text)
    .text                                    0x08000b94   Section        0  tcpthread.o(.text)
    .text                                    0x08000e64   Section        0  cnclerp.o(.text)
    .text                                    0x08001088   Section        0  rtx_conf_cm.o(.text)
    .text                                    0x080010bc   Section        0  phy_lan8720.o(.text)
    GetVersion                               0x080010bd   Thumb Code    10  phy_lan8720.o(.text)
    Initialize                               0x080010c7   Thumb Code   110  phy_lan8720.o(.text)
    Uninitialize                             0x08001135   Thumb Code    18  phy_lan8720.o(.text)
    PowerControl                             0x08001147   Thumb Code    64  phy_lan8720.o(.text)
    SetInterface                             0x08001187   Thumb Code    24  phy_lan8720.o(.text)
    SetMode                                  0x0800119f   Thumb Code   110  phy_lan8720.o(.text)
    GetLinkState                             0x0800120d   Thumb Code    26  phy_lan8720.o(.text)
    GetLinkInfo                              0x08001227   Thumb Code    50  phy_lan8720.o(.text)
    .text                                    0x08001268   Section        0  emac_stm32f4xx.o(.text)
    Enable_GPIO_Clock                        0x08001269   Thumb Code   310  emac_stm32f4xx.o(.text)
    init_rx_desc                             0x0800139f   Thumb Code    88  emac_stm32f4xx.o(.text)
    init_tx_desc                             0x080013f7   Thumb Code    74  emac_stm32f4xx.o(.text)
    crc32_8bit_rev                           0x08001441   Thumb Code    34  emac_stm32f4xx.o(.text)
    crc32_data                               0x08001463   Thumb Code    40  emac_stm32f4xx.o(.text)
    GetVersion                               0x0800148b   Thumb Code    10  emac_stm32f4xx.o(.text)
    GetCapabilities                          0x08001495   Thumb Code     6  emac_stm32f4xx.o(.text)
    Initialize                               0x0800149b   Thumb Code   106  emac_stm32f4xx.o(.text)
    Uninitialize                             0x08001505   Thumb Code    28  emac_stm32f4xx.o(.text)
    PowerControl                             0x08001521   Thumb Code   570  emac_stm32f4xx.o(.text)
    GetMacAddress                            0x0800175b   Thumb Code    42  emac_stm32f4xx.o(.text)
    SetMacAddress                            0x08001785   Thumb Code    50  emac_stm32f4xx.o(.text)
    SetAddressFilter                         0x080017b7   Thumb Code   292  emac_stm32f4xx.o(.text)
    SendFrame                                0x080018db   Thumb Code   254  emac_stm32f4xx.o(.text)
    ReadFrame                                0x080019d9   Thumb Code   120  emac_stm32f4xx.o(.text)
    GetRxFrameSize                           0x08001a51   Thumb Code    54  emac_stm32f4xx.o(.text)
    GetRxFrameTime                           0x08001af5   Thumb Code     8  emac_stm32f4xx.o(.text)
    GetTxFrameTime                           0x08001afd   Thumb Code     8  emac_stm32f4xx.o(.text)
    Control                                  0x08001b05   Thumb Code   306  emac_stm32f4xx.o(.text)
    ControlTimer                             0x08001c37   Thumb Code     8  emac_stm32f4xx.o(.text)
    PHY_Read                                 0x08001c3f   Thumb Code    96  emac_stm32f4xx.o(.text)
    PHY_Write                                0x08001c9f   Thumb Code    92  emac_stm32f4xx.o(.text)
    .text                                    0x08001d08   Section        0  otg_fs_stm32f4xx.o(.text)
    Enable_GPIO_Clock                        0x08001d09   Thumb Code   310  otg_fs_stm32f4xx.o(.text)
    .text                                    0x080020ac   Section        0  usart_stm32f4xx.o(.text)
    Enable_GPIO_Clock                        0x080020ad   Thumb Code   310  usart_stm32f4xx.o(.text)
    USART_PeripheralReset                    0x080021e3   Thumb Code   294  usart_stm32f4xx.o(.text)
    USARTx_GetVersion                        0x08002309   Thumb Code    10  usart_stm32f4xx.o(.text)
    USART_GetCapabilities                    0x08002313   Thumb Code     6  usart_stm32f4xx.o(.text)
    USART_Initialize                         0x08002319   Thumb Code   138  usart_stm32f4xx.o(.text)
    USART_Uninitialize                       0x080023a3   Thumb Code    82  usart_stm32f4xx.o(.text)
    USART_PowerControl                       0x080023f5   Thumb Code   696  usart_stm32f4xx.o(.text)
    USART_Receive                            0x080026ad   Thumb Code   162  usart_stm32f4xx.o(.text)
    USART_Send                               0x0800274f   Thumb Code   136  usart_stm32f4xx.o(.text)
    USART_Transfer                           0x080027d7   Thumb Code   106  usart_stm32f4xx.o(.text)
    USART_GetTxCount                         0x08002841   Thumb Code     8  usart_stm32f4xx.o(.text)
    USART_GetRxCount                         0x08002849   Thumb Code     8  usart_stm32f4xx.o(.text)
    USART_Control                            0x08002851   Thumb Code  2244  usart_stm32f4xx.o(.text)
    USART_GetStatus                          0x08003115   Thumb Code    98  usart_stm32f4xx.o(.text)
    USART_SetModemControl                    0x08003177   Thumb Code   114  usart_stm32f4xx.o(.text)
    USART_GetModemStatus                     0x080031e9   Thumb Code    90  usart_stm32f4xx.o(.text)
    USART6_GetCapabilities                   0x0800349f   Thumb Code    12  usart_stm32f4xx.o(.text)
    USART6_Initialize                        0x080034ab   Thumb Code    14  usart_stm32f4xx.o(.text)
    USART6_Uninitialize                      0x080034b9   Thumb Code    10  usart_stm32f4xx.o(.text)
    USART6_PowerControl                      0x080034c3   Thumb Code    14  usart_stm32f4xx.o(.text)
    USART6_Send                              0x080034d1   Thumb Code    18  usart_stm32f4xx.o(.text)
    USART6_Receive                           0x080034e3   Thumb Code    18  usart_stm32f4xx.o(.text)
    USART6_Transfer                          0x080034f5   Thumb Code    22  usart_stm32f4xx.o(.text)
    USART6_GetTxCount                        0x0800350b   Thumb Code    10  usart_stm32f4xx.o(.text)
    USART6_GetRxCount                        0x08003515   Thumb Code    10  usart_stm32f4xx.o(.text)
    USART6_Control                           0x0800351f   Thumb Code    18  usart_stm32f4xx.o(.text)
    USART6_GetStatus                         0x08003531   Thumb Code    12  usart_stm32f4xx.o(.text)
    USART6_SetModemControl                   0x0800353d   Thumb Code    14  usart_stm32f4xx.o(.text)
    USART6_GetModemStatus                    0x0800354b   Thumb Code    12  usart_stm32f4xx.o(.text)
    .text                                    0x08003564   Section        0  usbd_fs_stm32f4xx.o(.text)
    USBD_FlushInEpFifo                       0x08003565   Thumb Code    28  usbd_fs_stm32f4xx.o(.text)
    USBD_Reset                               0x08003581   Thumb Code   216  usbd_fs_stm32f4xx.o(.text)
    USBD_GetFrameNumber                      0x08003659   Thumb Code    26  usbd_fs_stm32f4xx.o(.text)
    USBD_EndpointReadSet                     0x08003673   Thumb Code   164  usbd_fs_stm32f4xx.o(.text)
    USBD_ReadFromFifo                        0x08003717   Thumb Code   206  usbd_fs_stm32f4xx.o(.text)
    USBD_WriteToFifo                         0x080037e5   Thumb Code   238  usbd_fs_stm32f4xx.o(.text)
    USBD_GetVersion                          0x080038d3   Thumb Code    10  usbd_fs_stm32f4xx.o(.text)
    USBD_GetCapabilities                     0x080038dd   Thumb Code     6  usbd_fs_stm32f4xx.o(.text)
    USBD_Initialize                          0x080038e3   Thumb Code    50  usbd_fs_stm32f4xx.o(.text)
    USBD_Uninitialize                        0x08003915   Thumb Code    30  usbd_fs_stm32f4xx.o(.text)
    USBD_PowerControl                        0x08003933   Thumb Code   610  usbd_fs_stm32f4xx.o(.text)
    USBD_DeviceConnect                       0x08003b95   Thumb Code    48  usbd_fs_stm32f4xx.o(.text)
    USBD_DeviceDisconnect                    0x08003bc5   Thumb Code    48  usbd_fs_stm32f4xx.o(.text)
    USBD_DeviceGetState                      0x08003bf5   Thumb Code     6  usbd_fs_stm32f4xx.o(.text)
    USBD_DeviceRemoteWakeup                  0x08003bfb   Thumb Code    52  usbd_fs_stm32f4xx.o(.text)
    USBD_DeviceSetAddress                    0x08003c2f   Thumb Code    38  usbd_fs_stm32f4xx.o(.text)
    USBD_ReadSetupPacket                     0x08003c55   Thumb Code    62  usbd_fs_stm32f4xx.o(.text)
    USBD_EndpointConfigure                   0x08003c93   Thumb Code   494  usbd_fs_stm32f4xx.o(.text)
    USBD_EndpointUnconfigure                 0x08003e81   Thumb Code   502  usbd_fs_stm32f4xx.o(.text)
    USBD_EndpointStall                       0x08004077   Thumb Code   438  usbd_fs_stm32f4xx.o(.text)
    USBD_EndpointTransfer                    0x0800422d   Thumb Code   172  usbd_fs_stm32f4xx.o(.text)
    USBD_EndpointTransferGetResult           0x080042d9   Thumb Code    36  usbd_fs_stm32f4xx.o(.text)
    USBD_EndpointTransferAbort               0x080042fd   Thumb Code   190  usbd_fs_stm32f4xx.o(.text)
    .text                                    0x0800491c   Section        0  stm32f4xx_hal.o(.text)
    .text                                    0x08004abc   Section        0  stm32f4xx_hal_cortex.o(.text)
    NVIC_SetPriority                         0x08004abd   Thumb Code    32  stm32f4xx_hal_cortex.o(.text)
    NVIC_GetPriorityGrouping                 0x08004d5f   Thumb Code    12  stm32f4xx_hal_cortex.o(.text)
    .text                                    0x08004d80   Section        0  stm32f4xx_hal_dac.o(.text)
    DAC_DMAErrorCh1                          0x08004e77   Thumb Code    26  stm32f4xx_hal_dac.o(.text)
    DAC_DMAHalfConvCpltCh1                   0x08004e93   Thumb Code    14  stm32f4xx_hal_dac.o(.text)
    DAC_DMAConvCpltCh1                       0x08004ea3   Thumb Code    18  stm32f4xx_hal_dac.o(.text)
    .text                                    0x08005130   Section        0  stm32f4xx_hal_dac_ex.o(.text)
    .text                                    0x08005230   Section        0  stm32f4xx_hal_dma.o(.text)
    DMA_SetConfig                            0x08006219   Thumb Code    44  stm32f4xx_hal_dma.o(.text)
    .text                                    0x0800b124   Section        0  stm32f4xx_hal_gpio.o(.text)
    .text                                    0x0800b4e4   Section        0  stm32f4xx_hal_rcc.o(.text)
    .text                                    0x0800bf90   Section        0  stm32f4xx_hal_tim.o(.text)
    TIM_DMAPeriodElapsedCplt                 0x0800c18b   Thumb Code    20  stm32f4xx_hal_tim.o(.text)
    TIM_OC3_SetConfig                        0x0800d8b3   Thumb Code   122  stm32f4xx_hal_tim.o(.text)
    TIM_OC1_SetConfig                        0x0800d99d   Thumb Code   102  stm32f4xx_hal_tim.o(.text)
    TIM_TI4_SetConfig                        0x0800da77   Thumb Code    64  stm32f4xx_hal_tim.o(.text)
    TIM_TI3_SetConfig                        0x0800dab7   Thumb Code    60  stm32f4xx_hal_tim.o(.text)
    TIM_TI2_SetConfig                        0x0800daf3   Thumb Code    62  stm32f4xx_hal_tim.o(.text)
    TIM_DMATriggerCplt                       0x0800decf   Thumb Code    20  stm32f4xx_hal_tim.o(.text)
    TIM_ETR_SetConfig                        0x0800e2f5   Thumb Code    24  stm32f4xx_hal_tim.o(.text)
    TIM_ITRx_SetConfig                       0x0800e409   Thumb Code    20  stm32f4xx_hal_tim.o(.text)
    TIM_TI1_ConfigInputStage                 0x0800e41d   Thumb Code    42  stm32f4xx_hal_tim.o(.text)
    TIM_TI2_ConfigInputStage                 0x0800e447   Thumb Code    44  stm32f4xx_hal_tim.o(.text)
    TIM_SlaveTimer_SetConfig                 0x0800e5bd   Thumb Code   164  stm32f4xx_hal_tim.o(.text)
    .text                                    0x0800e790   Section        0  stm32f4xx_hal_tim_ex.o(.text)
    TIM_CCxNChannelCmd                       0x0800ea11   Thumb Code    28  stm32f4xx_hal_tim_ex.o(.text)
    .text                                    0x0800f518   Section       36  startup_stm32f407xx.o(.text)
    $v0                                      0x0800f518   Number         0  startup_stm32f407xx.o(.text)
    .text                                    0x0800f53c   Section        0  system_stm32f4xx.o(.text)
    .text                                    0x0800f65c   Section        0  net_config.o(.text)
    .text                                    0x0800f774   Section        0  usbd_config_0.o(.text)
    .text                                    0x0800f8d8   Section        0  uldiv.o(.text)
    .text                                    0x0800f93a   Section        0  memcpya.o(.text)
    .text                                    0x0800f95e   Section        0  memseta.o(.text)
    .text                                    0x0800f982   Section        0  strlen.o(.text)
    .text                                    0x0800f990   Section        0  llshl.o(.text)
    .text                                    0x0800f9ae   Section        0  llushr.o(.text)
    .text                                    0x0800f9d0   Section       36  init.o(.text)
    .text                                    0x0800f9f4   Section        0  __dczerorl2.o(.text)
    SVC_TABLE                                0x0800fa4c   Section        4  svc_table.o(SVC_TABLE)
    i.USBD0_CoreThread                       0x0800fa50   Section        0  usbd_core.o(i.USBD0_CoreThread)
    i.USBD_CDC0_Bulk_Thread                  0x0800fa56   Section        0  usbd_cdc.o(i.USBD_CDC0_Bulk_Thread)
    i.USBD_CDC0_Int_Thread                   0x0800fa5c   Section        0  usbd_cdc.o(i.USBD_CDC0_Int_Thread)
    i.USBD_CDC_ACM_CoreClearCommFeature      0x0800fa62   Section        0  usbd_cdc.o(i.USBD_CDC_ACM_CoreClearCommFeature)
    i.USBD_CDC_ACM_CoreGetCommFeature        0x0800fa66   Section        0  usbd_cdc.o(i.USBD_CDC_ACM_CoreGetCommFeature)
    i.USBD_CDC_ACM_CoreGetEncapsulatedResponse 0x0800fa6a   Section        0  usbd_cdc.o(i.USBD_CDC_ACM_CoreGetEncapsulatedResponse)
    i.USBD_CDC_ACM_CoreGetLineCoding         0x0800fa70   Section        0  usbd_cdc.o(i.USBD_CDC_ACM_CoreGetLineCoding)
    i.USBD_CDC_ACM_CoreReset                 0x0800fae4   Section        0  usbd_cdc.o(i.USBD_CDC_ACM_CoreReset)
    i.USBD_CDC_ACM_CoreSendBreak             0x0800fb64   Section        0  usbd_cdc.o(i.USBD_CDC_ACM_CoreSendBreak)
    i.USBD_CDC_ACM_CoreSendEncapsulatedCommand 0x0800fb68   Section        0  usbd_cdc.o(i.USBD_CDC_ACM_CoreSendEncapsulatedCommand)
    i.USBD_CDC_ACM_CoreSetCommFeature        0x0800fb6c   Section        0  usbd_cdc.o(i.USBD_CDC_ACM_CoreSetCommFeature)
    i.USBD_CDC_ACM_CoreSetControlLineState   0x0800fb70   Section        0  usbd_cdc.o(i.USBD_CDC_ACM_CoreSetControlLineState)
    i.USBD_CDC_ACM_CoreSetLineCoding         0x0800fba8   Section        0  usbd_cdc.o(i.USBD_CDC_ACM_CoreSetLineCoding)
    i.USBD_CDC_ACM_WriteData                 0x0800fc0c   Section        0  usbd_cdc.o(i.USBD_CDC_ACM_WriteData)
    i.USBD_CDC_Bulk_Thread                   0x0800fcb4   Section        0  usbd_cdc.o(i.USBD_CDC_Bulk_Thread)
    i.USBD_CDC_CheckInstance                 0x0800fce0   Section        0  usbd_cdc.o(i.USBD_CDC_CheckInstance)
    i.USBD_CDC_ClassInitialize               0x0800fd1c   Section        0  usbd_cdc.o(i.USBD_CDC_ClassInitialize)
    i.USBD_CDC_ClassUninitialize             0x0800fd84   Section        0  usbd_cdc.o(i.USBD_CDC_ClassUninitialize)
    i.USBD_CDC_EventEndpointStart            0x0800fdd4   Section        0  usbd_cdc.o(i.USBD_CDC_EventEndpointStart)
    i.USBD_CDC_EventEpBulkIn                 0x0800fe2c   Section        0  usbd_cdc.o(i.USBD_CDC_EventEpBulkIn)
    USBD_CDC_EventEpBulkIn                   0x0800fe2d   Thumb Code   226  usbd_cdc.o(i.USBD_CDC_EventEpBulkIn)
    i.USBD_CDC_EventEpBulkOut                0x0800ff1c   Section        0  usbd_cdc.o(i.USBD_CDC_EventEpBulkOut)
    USBD_CDC_EventEpBulkOut                  0x0800ff1d   Thumb Code   180  usbd_cdc.o(i.USBD_CDC_EventEpBulkOut)
    i.USBD_CDC_EventReset                    0x0800ffdc   Section        0  usbd_cdc.o(i.USBD_CDC_EventReset)
    i.USBD_CDC_Int_Thread                    0x08010014   Section        0  usbd_cdc.o(i.USBD_CDC_Int_Thread)
    i.USBD_CheckDevice                       0x08010044   Section        0  usbd_core.o(i.USBD_CheckDevice)
    i.USBD_Core                              0x08010070   Section        0  usbd_core.o(i.USBD_Core)
    i.USBD_CoreThread                        0x080100d4   Section        0  usbd_core.o(i.USBD_CoreThread)
    i.USBD_DataInStage                       0x08010160   Section        0  usbd_core.o(i.USBD_DataInStage)
    i.USBD_DataOutStage                      0x080101b4   Section        0  usbd_core.o(i.USBD_DataOutStage)
    i.USBD_DriverDeviceSetAddress            0x080101e0   Section        0  usbd_core.o(i.USBD_DriverDeviceSetAddress)
    i.USBD_DriverEndpointConfigure           0x08010224   Section        0  usbd_core.o(i.USBD_DriverEndpointConfigure)
    i.USBD_DriverEndpointStall               0x080102a0   Section        0  usbd_core.o(i.USBD_DriverEndpointStall)
    i.USBD_DriverEndpointTransfer            0x08010318   Section        0  usbd_core.o(i.USBD_DriverEndpointTransfer)
    i.USBD_DriverEndpointTransferAbort       0x080103b4   Section        0  usbd_core.o(i.USBD_DriverEndpointTransferAbort)
    i.USBD_DriverEndpointTransferGetResult   0x0801042c   Section        0  usbd_core.o(i.USBD_DriverEndpointTransferGetResult)
    i.USBD_DriverEndpointUnconfigure         0x08010468   Section        0  usbd_core.o(i.USBD_DriverEndpointUnconfigure)
    i.USBD_DriverReadSetupPacket             0x080104dc   Section        0  usbd_core.o(i.USBD_DriverReadSetupPacket)
    i.USBD_Endpoint0                         0x08010520   Section        0  usbd_core.o(i.USBD_Endpoint0)
    i.USBD_Endpoint0_Out_CDC_ReqToIF         0x08010774   Section        0  usbd_core_cdc.o(i.USBD_Endpoint0_Out_CDC_ReqToIF)
    i.USBD_Endpoint0_Setup_CDC_ReqToIF       0x080107fc   Section        0  usbd_core_cdc.o(i.USBD_Endpoint0_Setup_CDC_ReqToIF)
    i.USBD_EndpointStall                     0x080108e0   Section        0  usbd_core.o(i.USBD_EndpointStall)
    i.USBD_ReqGetConfiguration               0x08010940   Section        0  usbd_core.o(i.USBD_ReqGetConfiguration)
    i.USBD_ReqGetDescriptor                  0x08010964   Section        0  usbd_core.o(i.USBD_ReqGetDescriptor)
    i.USBD_ReqGetInterface                   0x08010aa0   Section        0  usbd_core.o(i.USBD_ReqGetInterface)
    i.USBD_ReqGetStatus                      0x08010ad4   Section        0  usbd_core.o(i.USBD_ReqGetStatus)
    i.USBD_ReqSetAddress                     0x08010b50   Section        0  usbd_core.o(i.USBD_ReqSetAddress)
    i.USBD_ReqSetClrFeature                  0x08010b78   Section        0  usbd_core.o(i.USBD_ReqSetClrFeature)
    i.USBD_ReqSetConfiguration               0x08010c64   Section        0  usbd_core.o(i.USBD_ReqSetConfiguration)
    i.USBD_ReqSetInterface                   0x08010e8c   Section        0  usbd_core.o(i.USBD_ReqSetInterface)
    i.USBD_ResetCore                         0x08011010   Section        0  usbd_core.o(i.USBD_ResetCore)
    i.USBD_SetupStage                        0x08011078   Section        0  usbd_core.o(i.USBD_SetupStage)
    i.USBD_SignalDeviceEvent                 0x08011090   Section        0  usbd_core.o(i.USBD_SignalDeviceEvent)
    i.USBD_SignalEndpointEvent               0x080110a0   Section        0  usbd_core.o(i.USBD_SignalEndpointEvent)
    i.USBD_StatusInStage                     0x080110ec   Section        0  usbd_core.o(i.USBD_StatusInStage)
    i.USBD_StatusInStageDone                 0x080110f8   Section        0  usbd_core.o(i.USBD_StatusInStageDone)
    i.USBD_StatusOutStage                    0x0801110a   Section        0  usbd_core.o(i.USBD_StatusOutStage)
    i.USBD_StatusOutStageDone                0x08011118   Section        0  usbd_core.o(i.USBD_StatusOutStageDone)
    i.USBD_SwitchToHighSpeedCore             0x0801114c   Section        0  usbd_core.o(i.USBD_SwitchToHighSpeedCore)
    i.__scatterload_copy                     0x08011164   Section       14  handlers.o(i.__scatterload_copy)
    i.__scatterload_null                     0x08011172   Section        2  handlers.o(i.__scatterload_null)
    i.__scatterload_zeroinit                 0x08011174   Section       14  handlers.o(i.__scatterload_zeroinit)
    i._init_box                              0x08011182   Section        0  rt_membox.o(i._init_box)
    i.arp_cache_add                          0x080111c8   Section        0  net_arp.o(i.arp_cache_add)
    i.arp_cache_alloc                        0x0801126c   Section        0  net_arp.o(i.arp_cache_alloc)
    arp_cache_alloc                          0x0801126d   Thumb Code   132  net_arp.o(i.arp_cache_alloc)
    i.arp_cache_early                        0x080112f4   Section        0  net_arp.o(i.arp_cache_early)
    i.arp_cache_find                         0x0801137c   Section        0  net_arp.o(i.arp_cache_find)
    i.arp_cache_update                       0x0801141c   Section        0  net_arp.o(i.arp_cache_update)
    i.arp_init                               0x08011500   Section        0  net_arp.o(i.arp_init)
    i.arp_is_cacheable                       0x08011530   Section        0  net_arp.o(i.arp_is_cacheable)
    arp_is_cacheable                         0x08011531   Thumb Code    54  net_arp.o(i.arp_is_cacheable)
    i.arp_notify                             0x0801156c   Section        0  net_arp.o(i.arp_notify)
    i.arp_proc_response                      0x08011594   Section        0  net_arp.o(i.arp_proc_response)
    arp_proc_response                        0x08011595   Thumb Code   110  net_arp.o(i.arp_proc_response)
    i.arp_process                            0x08011608   Section        0  net_arp.o(i.arp_process)
    i.arp_send_reply                         0x08011728   Section        0  net_arp.o(i.arp_send_reply)
    arp_send_reply                           0x08011729   Thumb Code   134  net_arp.o(i.arp_send_reply)
    i.arp_send_request                       0x080117b8   Section        0  net_arp.o(i.arp_send_request)
    arp_send_request                         0x080117b9   Thumb Code   178  net_arp.o(i.arp_send_request)
    i.chksum16                               0x08011878   Section        0  net_common.o(i.chksum16)
    i.dbg_init                               0x080118ac   Section        0  hal_cm.o(i.dbg_init)
    i.dbg_task_notify                        0x080118dc   Section        0  hal_cm.o(i.dbg_task_notify)
    i.dbg_task_switch                        0x080118fc   Section        0  hal_cm.o(i.dbg_task_switch)
    i.eth_check_link                         0x0801190c   Section        0  net_eth.o(i.eth_check_link)
    eth_check_link                           0x0801190d   Thumb Code   174  net_eth.o(i.eth_check_link)
    i.eth_chk_addr                           0x080119cc   Section        0  net_eth.o(i.eth_chk_addr)
    i.eth_fetch_frame                        0x080119ec   Section        0  net_eth.o(i.eth_fetch_frame)
    eth_fetch_frame                          0x080119ed   Thumb Code   108  net_eth.o(i.eth_fetch_frame)
    i.eth_init_link                          0x08011a60   Section        0  net_eth.o(i.eth_init_link)
    i.eth_link_notify                        0x08011b58   Section        0  net_eth.o(i.eth_link_notify)
    i.eth_notify                             0x08011b5c   Section        0  net_eth.o(i.eth_notify)
    eth_notify                               0x08011b5d   Thumb Code    16  net_eth.o(i.eth_notify)
    i.eth_run_link                           0x08011b70   Section        0  net_eth.o(i.eth_run_link)
    i.eth_send_frame                         0x08011c54   Section        0  net_eth.o(i.eth_send_frame)
    i.eth_thread                             0x08011cfc   Section        0  net_eth.o(i.eth_thread)
    i.get_crc32                              0x08011d0c   Section        0  net_common.o(i.get_crc32)
    get_crc32                                0x08011d0d   Thumb Code    24  net_common.o(i.get_crc32)
    i.get_rnd32                              0x08011d28   Section        0  net_sys.o(i.get_rnd32)
    i.icmp_process                           0x08011d44   Section        0  net_icmp.o(i.icmp_process)
    i.icmp_send_message                      0x08011e20   Section        0  net_icmp.o(i.icmp_send_message)
    icmp_send_message                        0x08011e21   Thumb Code   124  net_icmp.o(i.icmp_send_message)
    i.icmp_service_init                      0x08011ea0   Section        0  net_icmp.o(i.icmp_service_init)
    i.icmp_service_run                       0x08011eb0   Section        0  net_icmp.o(i.icmp_service_run)
    i.ip4_checksum                           0x08011ef8   Section        0  net_ip.o(i.ip4_checksum)
    i.ip_chk_frame                           0x08011f44   Section        0  net_ip.o(i.ip_chk_frame)
    i.ip_get_chksum                          0x08012014   Section        0  net_ip.o(i.ip_get_chksum)
    ip_get_chksum                            0x08012015   Thumb Code    10  net_ip.o(i.ip_get_chksum)
    i.ip_get_locadr                          0x08012020   Section        0  net_ip.o(i.ip_get_locadr)
    i.ip_get_route                           0x08012064   Section        0  net_ip.o(i.ip_get_route)
    ip_get_route                             0x08012065   Thumb Code   132  net_ip.o(i.ip_get_route)
    i.ip_localhost_init                      0x080120f0   Section        0  net_ip.o(i.ip_localhost_init)
    i.ip_localhost_run                       0x0801210c   Section        0  net_ip.o(i.ip_localhost_run)
    i.ip_send_frame                          0x0801216c   Section        0  net_ip.o(i.ip_send_frame)
    i.ip_tx_offload                          0x080122ac   Section        0  net_ip.o(i.ip_tx_offload)
    i.is_subnet                              0x080122dc   Section        0  net_addr4.o(i.is_subnet)
    i.is_subnet_bcast                        0x080122f8   Section        0  net_ip.o(i.is_subnet_bcast)
    i.isrMessageGet                          0x08012320   Section        0  rt_cmsis.o(i.isrMessageGet)
    i.isrMessagePut                          0x0801234a   Section        0  rt_cmsis.o(i.isrMessagePut)
    i.isrSemaphoreRelease                    0x08012376   Section        0  rt_cmsis.o(i.isrSemaphoreRelease)
    i.isrSignalSet                           0x0801239e   Section        0  rt_cmsis.o(i.isrSignalSet)
    i.isr_evt_set                            0x080123c4   Section        0  rt_event.o(i.isr_evt_set)
    i.isr_mbx_receive                        0x080123ec   Section        0  rt_mailbox.o(i.isr_mbx_receive)
    i.isr_mbx_send                           0x0801243e   Section        0  rt_mailbox.o(i.isr_mbx_send)
    i.isr_sem_send                           0x0801244c   Section        0  rt_semaphore.o(i.isr_sem_send)
    i.mem_alloc                              0x0801245c   Section        0  net_mem.o(i.mem_alloc)
    i.mem_avail                              0x080124e8   Section        0  net_mem.o(i.mem_avail)
    i.mem_crc32                              0x08012504   Section        0  net_common.o(i.mem_crc32)
    i.mem_free                               0x08012524   Section        0  net_mem.o(i.mem_free)
    i.mem_init                               0x08012590   Section        0  net_mem.o(i.mem_init)
    i.mem_lock                               0x080125f4   Section        0  net_mem.o(i.mem_lock)
    mem_lock                                 0x080125f5   Thumb Code    12  net_mem.o(i.mem_lock)
    i.mem_resize                             0x08012604   Section        0  net_mem.o(i.mem_resize)
    i.mem_unlock                             0x0801263c   Section        0  net_mem.o(i.mem_unlock)
    mem_unlock                               0x0801263d   Thumb Code     8  net_mem.o(i.mem_unlock)
    i.net_initialize                         0x08012648   Section        0  net_sys.o(i.net_initialize)
    i.net_main                               0x08012694   Section        0  net_sys.o(i.net_main)
    i.net_timer_tick                         0x080126f8   Section        0  net_sys.o(i.net_timer_tick)
    net_timer_tick                           0x080126f9   Thumb Code    14  net_sys.o(i.net_timer_tick)
    i.osDelay                                0x0801270c   Section        0  rt_cmsis.o(i.osDelay)
    i.osKernelInitialize                     0x08012724   Section        0  rt_cmsis.o(i.osKernelInitialize)
    i.osKernelStart                          0x08012748   Section        0  rt_cmsis.o(i.osKernelStart)
    i.osMessageGet                           0x080127b4   Section        0  rt_cmsis.o(i.osMessageGet)
    i.osMutexCreate                          0x080127cc   Section        0  rt_cmsis.o(i.osMutexCreate)
    i.osMutexRelease                         0x080127fc   Section        0  rt_cmsis.o(i.osMutexRelease)
    i.osMutexWait                            0x08012814   Section        0  rt_cmsis.o(i.osMutexWait)
    i.osSemaphoreRelease                     0x0801282c   Section        0  rt_cmsis.o(i.osSemaphoreRelease)
    i.osSemaphoreWait                        0x08012844   Section        0  rt_cmsis.o(i.osSemaphoreWait)
    i.osSignalSet                            0x0801285c   Section        0  rt_cmsis.o(i.osSignalSet)
    i.osSignalWait                           0x08012874   Section        0  rt_cmsis.o(i.osSignalWait)
    i.osThreadCreate                         0x0801288c   Section        0  rt_cmsis.o(i.osThreadCreate)
    i.osThreadExit                           0x080128bc   Section        0  rt_cmsis.o(i.osThreadExit)
    i.osThreadTerminate                      0x080128d4   Section        0  rt_cmsis.o(i.osThreadTerminate)
    i.osTimerCall                            0x080128ec   Section        0  rt_cmsis.o(i.osTimerCall)
    i.osTimerCreate                          0x080128f8   Section        0  rt_cmsis.o(i.osTimerCreate)
    i.osTimerStart                           0x0801292c   Section        0  rt_cmsis.o(i.osTimerStart)
    i.osTimerThread                          0x08012944   Section        0  rt_cmsis.o(i.osTimerThread)
    i.rt_alloc_box                           0x08012970   Section        0  rt_membox.o(i.rt_alloc_box)
    i.rt_alloc_mem                           0x0801298a   Section        0  rt_memory.o(i.rt_alloc_mem)
    i.rt_block                               0x080129c8   Section        0  rt_task.o(i.rt_block)
    i.rt_chk_robin                           0x08012a00   Section        0  rt_robin.o(i.rt_chk_robin)
    i.rt_dec_dly                             0x08012a48   Section        0  rt_list.o(i.rt_dec_dly)
    i.rt_dispatch                            0x08012ab8   Section        0  rt_task.o(i.rt_dispatch)
    i.rt_dly_wait                            0x08012afc   Section        0  rt_time.o(i.rt_dly_wait)
    i.rt_evt_psh                             0x08012b04   Section        0  rt_event.o(i.rt_evt_psh)
    i.rt_evt_set                             0x08012b54   Section        0  rt_event.o(i.rt_evt_set)
    i.rt_evt_wait                            0x08012bb0   Section        0  rt_event.o(i.rt_evt_wait)
    i.rt_free_box                            0x08012bec   Section        0  rt_membox.o(i.rt_free_box)
    i.rt_free_mem                            0x08012c0c   Section        0  rt_memory.o(i.rt_free_mem)
    i.rt_get_first                           0x08012c34   Section        0  rt_list.o(i.rt_get_first)
    i.rt_id2obj                              0x08012c5c   Section        0  rt_cmsis.o(i.rt_id2obj)
    rt_id2obj                                0x08012c5d   Thumb Code     8  rt_cmsis.o(i.rt_id2obj)
    i.rt_init_context                        0x08012c64   Section        0  rt_task.o(i.rt_init_context)
    rt_init_context                          0x08012c65   Thumb Code    66  rt_task.o(i.rt_init_context)
    i.rt_init_mem                            0x08012cac   Section        0  rt_memory.o(i.rt_init_mem)
    i.rt_init_robin                          0x08012cc8   Section        0  rt_robin.o(i.rt_init_robin)
    i.rt_init_stack                          0x08012ce0   Section        0  hal_cm.o(i.rt_init_stack)
    i.rt_mbx_check                           0x08012d60   Section        0  rt_mailbox.o(i.rt_mbx_check)
    i.rt_mbx_init                            0x08012d68   Section        0  rt_mailbox.o(i.rt_mbx_init)
    i.rt_mbx_psh                             0x08012d84   Section        0  rt_mailbox.o(i.rt_mbx_psh)
    i.rt_mbx_wait                            0x08012e74   Section        0  rt_mailbox.o(i.rt_mbx_wait)
    i.rt_ms2tick                             0x08012f28   Section        0  rt_cmsis.o(i.rt_ms2tick)
    rt_ms2tick                               0x08012f29   Thumb Code    50  rt_cmsis.o(i.rt_ms2tick)
    i.rt_mut_init                            0x08012f64   Section        0  rt_mutex.o(i.rt_mut_init)
    i.rt_mut_release                         0x08012f74   Section        0  rt_mutex.o(i.rt_mut_release)
    i.rt_mut_wait                            0x0801304c   Section        0  rt_mutex.o(i.rt_mut_wait)
    i.rt_pop_req                             0x080130b4   Section        0  rt_system.o(i.rt_pop_req)
    i.rt_psh_req                             0x08013130   Section        0  rt_system.o(i.rt_psh_req)
    i.rt_psq_enq                             0x08013150   Section        0  rt_list.o(i.rt_psq_enq)
    i.rt_put_dly                             0x080131ac   Section        0  rt_list.o(i.rt_put_dly)
    i.rt_put_prio                            0x080131f4   Section        0  rt_list.o(i.rt_put_prio)
    i.rt_put_rdy_first                       0x0801322c   Section        0  rt_list.o(i.rt_put_rdy_first)
    i.rt_resort_prio                         0x08013240   Section        0  rt_list.o(i.rt_resort_prio)
    i.rt_ret_regs                            0x08013274   Section        0  hal_cm.o(i.rt_ret_regs)
    rt_ret_regs                              0x08013275   Thumb Code    16  hal_cm.o(i.rt_ret_regs)
    i.rt_ret_val                             0x08013284   Section        0  hal_cm.o(i.rt_ret_val)
    i.rt_ret_val2                            0x08013290   Section        0  hal_cm.o(i.rt_ret_val2)
    i.rt_rmv_dly                             0x080132a0   Section        0  rt_list.o(i.rt_rmv_dly)
    i.rt_rmv_list                            0x080132c8   Section        0  rt_list.o(i.rt_rmv_list)
    i.rt_sem_psh                             0x080132f8   Section        0  rt_semaphore.o(i.rt_sem_psh)
    i.rt_sem_send                            0x0801332c   Section        0  rt_semaphore.o(i.rt_sem_send)
    i.rt_sem_wait                            0x08013358   Section        0  rt_semaphore.o(i.rt_sem_wait)
    i.rt_stk_check                           0x08013398   Section        0  rt_system.o(i.rt_stk_check)
    i.rt_switch_req                          0x080133bc   Section        0  rt_task.o(i.rt_switch_req)
    i.rt_sys_init                            0x080133e4   Section        0  rt_task.o(i.rt_sys_init)
    i.rt_sys_start                           0x080134b0   Section        0  rt_task.o(i.rt_sys_start)
    i.rt_systick                             0x08013528   Section        0  rt_system.o(i.rt_systick)
    i.rt_tid2ptcb                            0x08013568   Section        0  rt_cmsis.o(i.rt_tid2ptcb)
    rt_tid2ptcb                              0x08013569   Thumb Code    18  rt_cmsis.o(i.rt_tid2ptcb)
    i.rt_timer_insert                        0x0801357c   Section        0  rt_cmsis.o(i.rt_timer_insert)
    rt_timer_insert                          0x0801357d   Thumb Code    48  rt_cmsis.o(i.rt_timer_insert)
    i.rt_timer_remove                        0x080135b0   Section        0  rt_cmsis.o(i.rt_timer_remove)
    rt_timer_remove                          0x080135b1   Thumb Code    56  rt_cmsis.o(i.rt_timer_remove)
    i.rt_tsk_create                          0x080135ec   Section        0  rt_task.o(i.rt_tsk_create)
    i.rt_tsk_delete                          0x0801366c   Section        0  rt_task.o(i.rt_tsk_delete)
    i.rt_tsk_prio                            0x080137e0   Section        0  rt_task.o(i.rt_tsk_prio)
    i.rt_tsk_self                            0x0801385c   Section        0  rt_task.o(i.rt_tsk_self)
    i.svcDelay                               0x0801386c   Section        0  rt_cmsis.o(i.svcDelay)
    i.svcKernelInitialize                    0x08013880   Section        0  rt_cmsis.o(i.svcKernelInitialize)
    i.svcKernelStart                         0x080138f0   Section        0  rt_cmsis.o(i.svcKernelStart)
    i.svcMessageCreate                       0x08013938   Section        0  rt_cmsis.o(i.svcMessageCreate)
    i.svcMessageGet                          0x0801395c   Section        0  rt_cmsis.o(i.svcMessageGet)
    i.svcMutexCreate                         0x08013996   Section        0  rt_cmsis.o(i.svcMutexCreate)
    i.svcMutexRelease                        0x080139b2   Section        0  rt_cmsis.o(i.svcMutexRelease)
    i.svcMutexWait                           0x080139d4   Section        0  rt_cmsis.o(i.svcMutexWait)
    i.svcSemaphoreRelease                    0x08013a0a   Section        0  rt_cmsis.o(i.svcSemaphoreRelease)
    i.svcSemaphoreWait                       0x08013a32   Section        0  rt_cmsis.o(i.svcSemaphoreWait)
    i.svcSignalSet                           0x08013a64   Section        0  rt_cmsis.o(i.svcSignalSet)
    i.svcSignalWait                          0x08013a88   Section        0  rt_cmsis.o(i.svcSignalWait)
    i.svcThreadCreate                        0x08013adc   Section        0  rt_cmsis.o(i.svcThreadCreate)
    i.svcThreadGetId                         0x08013b4c   Section        0  rt_cmsis.o(i.svcThreadGetId)
    i.svcThreadTerminate                     0x08013b68   Section        0  rt_cmsis.o(i.svcThreadTerminate)
    i.svcTimerCall                           0x08013ba0   Section        0  rt_cmsis.o(i.svcTimerCall)
    i.svcTimerCreate                         0x08013bb8   Section        0  rt_cmsis.o(i.svcTimerCreate)
    i.svcTimerStart                          0x08013bf0   Section        0  rt_cmsis.o(i.svcTimerStart)
    i.sysTimerTick                           0x08013c54   Section        0  rt_cmsis.o(i.sysTimerTick)
    i.tcp_check_send                         0x08013cb0   Section        0  net_tcp.o(i.tcp_check_send)
    i.tcp_get_buf                            0x08013cec   Section        0  net_tcp.o(i.tcp_get_buf)
    i.tcp_get_socket                         0x08013d0c   Section        0  net_tcp.o(i.tcp_get_socket)
    i.tcp_listen                             0x08013d5c   Section        0  net_tcp.o(i.tcp_listen)
    i.tcp_map_socket                         0x08013dc8   Section        0  net_tcp.o(i.tcp_map_socket)
    tcp_map_socket                           0x08013dc9   Thumb Code   120  net_tcp.o(i.tcp_map_socket)
    i.tcp_max_data_size                      0x08013e44   Section        0  net_tcp.o(i.tcp_max_data_size)
    i.tcp_parse_opt                          0x08013e68   Section        0  net_tcp.o(i.tcp_parse_opt)
    tcp_parse_opt                            0x08013e69   Thumb Code    94  net_tcp.o(i.tcp_parse_opt)
    i.tcp_proc_acknr                         0x08013ec8   Section        0  net_tcp.o(i.tcp_proc_acknr)
    tcp_proc_acknr                           0x08013ec9   Thumb Code   192  net_tcp.o(i.tcp_proc_acknr)
    i.tcp_proc_dupack                        0x08013f8c   Section        0  net_tcp.o(i.tcp_proc_dupack)
    tcp_proc_dupack                          0x08013f8d   Thumb Code    82  net_tcp.o(i.tcp_proc_dupack)
    i.tcp_process                            0x08013fe0   Section        0  net_tcp.o(i.tcp_process)
    i.tcp_que_free                           0x0801447a   Section        0  net_tcp.o(i.tcp_que_free)
    tcp_que_free                             0x0801447b   Thumb Code    26  net_tcp.o(i.tcp_que_free)
    i.tcp_que_init                           0x08014494   Section        0  net_tcp.o(i.tcp_que_init)
    tcp_que_init                             0x08014495   Thumb Code    26  net_tcp.o(i.tcp_que_init)
    i.tcp_que_resend                         0x080144b0   Section        0  net_tcp.o(i.tcp_que_resend)
    tcp_que_resend                           0x080144b1   Thumb Code   142  net_tcp.o(i.tcp_que_resend)
    i.tcp_send                               0x08014544   Section        0  net_tcp.o(i.tcp_send)
    i.tcp_send_ctrl                          0x08014624   Section        0  net_tcp.o(i.tcp_send_ctrl)
    tcp_send_ctrl                            0x08014625   Thumb Code   102  net_tcp.o(i.tcp_send_ctrl)
    i.tcp_send_data                          0x0801468a   Section        0  net_tcp.o(i.tcp_send_data)
    tcp_send_data                            0x0801468b   Thumb Code    76  net_tcp.o(i.tcp_send_data)
    i.tcp_send_reset                         0x080146d6   Section        0  net_tcp.o(i.tcp_send_reset)
    tcp_send_reset                           0x080146d7   Thumb Code    96  net_tcp.o(i.tcp_send_reset)
    i.tcp_set_cwnd                           0x08014736   Section        0  net_tcp.o(i.tcp_set_cwnd)
    tcp_set_cwnd                             0x08014737   Thumb Code    38  net_tcp.o(i.tcp_set_cwnd)
    i.tcp_socket_init                        0x0801475c   Section        0  net_tcp.o(i.tcp_socket_init)
    i.tcp_socket_poll                        0x08014770   Section        0  net_tcp.o(i.tcp_socket_poll)
    i.tcp_transit                            0x080149f8   Section        0  net_tcp.o(i.tcp_transit)
    tcp_transit                              0x080149f9   Thumb Code   100  net_tcp.o(i.tcp_transit)
    i.tcp_write                              0x08014a60   Section        0  net_tcp.o(i.tcp_write)
    tcp_write                                0x08014a61   Thumb Code   158  net_tcp.o(i.tcp_write)
    .constdata                               0x08014b04   Section       16  tcpthread.o(.constdata)
    .constdata                               0x08014b14   Section       86  rtx_conf_cm.o(.constdata)
    __tagsym$$used                           0x08014b30   Number         0  rtx_conf_cm.o(.constdata)
    __tagsym$$used                           0x08014b34   Number         0  rtx_conf_cm.o(.constdata)
    __tagsym$$used                           0x08014b38   Number         0  rtx_conf_cm.o(.constdata)
    __tagsym$$used                           0x08014b3c   Number         0  rtx_conf_cm.o(.constdata)
    .constdata                               0x08014b6c   Section       36  phy_lan8720.o(.constdata)
    DriverVersion                            0x08014b6c   Data           4  phy_lan8720.o(.constdata)
    .constdata                               0x08014b90   Section      148  emac_stm32f4xx.o(.constdata)
    eth_pins                                 0x08014b90   Data          72  emac_stm32f4xx.o(.constdata)
    DriverVersion                            0x08014bd8   Data           4  emac_stm32f4xx.o(.constdata)
    DriverCapabilities                       0x08014bdc   Data           4  emac_stm32f4xx.o(.constdata)
    .constdata                               0x08014c24   Section      128  usart_stm32f4xx.o(.constdata)
    usart_driver_version                     0x08014c24   Data           4  usart_stm32f4xx.o(.constdata)
    USART6_tx                                0x08014c28   Data           8  usart_stm32f4xx.o(.constdata)
    USART6_rx                                0x08014c30   Data           8  usart_stm32f4xx.o(.constdata)
    USART6_Resources                         0x08014c38   Data          52  usart_stm32f4xx.o(.constdata)
    .constdata                               0x08014ca4   Section       80  usbd_fs_stm32f4xx.o(.constdata)
    usbd_driver_version                      0x08014ca4   Data           4  usbd_fs_stm32f4xx.o(.constdata)
    usbd_driver_capabilities                 0x08014ca8   Data           4  usbd_fs_stm32f4xx.o(.constdata)
    .constdata                               0x08014cf4   Section       16  stm32f4xx_hal_rcc.o(.constdata)
    .constdata                               0x08014d04   Section      140  net_config.o(.constdata)
    .constdata                               0x08014d90   Section      468  usbd_config_0.o(.constdata)
    .constdata                               0x08014f64   Section       28  net_eth.o(.constdata)
    link_evt                                 0x08014f6a   Data           6  net_eth.o(.constdata)
    .constdata                               0x08014f80   Section        8  net_ip.o(.constdata)
    ip_lhost                                 0x08014f84   Data           4  net_ip.o(.constdata)
    .constdata                               0x08014f88   Section        8  net_sys.o(.constdata)
    .constdata                               0x08014f90   Section        4  net_mem.o(.constdata)
    .constdata                               0x08014f94   Section        8  net_addr4.o(.constdata)
    .conststring                             0x08014f9c   Section      109  net_tcp.o(.conststring)
    .data                                    0x20000000   Section       28  dacmodule.o(.data)
    .data                                    0x2000001c   Section       24  tcpthread.o(.data)
    .data                                    0x20000034   Section       32  rtx_conf_cm.o(.data)
    .data                                    0x20000054   Section       10  phy_lan8720.o(.data)
    reg_rd                                   0x20000054   Data           4  phy_lan8720.o(.data)
    reg_wr                                   0x20000058   Data           4  phy_lan8720.o(.data)
    reg_bmcr                                 0x2000005c   Data           2  phy_lan8720.o(.data)
    .data                                    0x2000005e   Section        3  otg_fs_stm32f4xx.o(.data)
    pins_cfg_mask                            0x2000005e   Data           1  otg_fs_stm32f4xx.o(.data)
    .data                                    0x20000064   Section       28  usbd_fs_stm32f4xx.o(.data)
    SignalDeviceEvent                        0x20000064   Data           4  usbd_fs_stm32f4xx.o(.data)
    SignalEndpointEvent                      0x20000068   Data           4  usbd_fs_stm32f4xx.o(.data)
    usbd_state                               0x2000006c   Data           4  usbd_fs_stm32f4xx.o(.data)
    setup_packet                             0x20000070   Data           8  usbd_fs_stm32f4xx.o(.data)
    setup_received                           0x20000078   Data           1  usbd_fs_stm32f4xx.o(.data)
    IsoInIncomplete                          0x2000007c   Data           4  usbd_fs_stm32f4xx.o(.data)
    .data                                    0x20000080   Section        4  stm32f4xx_hal.o(.data)
    uwTick                                   0x20000080   Data           4  stm32f4xx_hal.o(.data)
    .data                                    0x20000084   Section       20  system_stm32f4xx.o(.data)
    .data                                    0x20000098   Section       22  net_config.o(.data)
    eth0_mac_addr                            0x200000a8   Data           6  net_config.o(.data)
    .data                                    0x200000b0   Section       96  usbd_config_0.o(.data)
    .data                                    0x20000110   Section        8  rt_cmsis.o(.data)
    .data                                    0x20000118   Section        4  net_eth.o(.data)
    eth_thread_id                            0x20000118   Data           4  net_eth.o(.data)
    .data                                    0x2000011c   Section        8  net_arp.o(.data)
    entry                                    0x2000011c   Data           1  net_arp.o(.data)
    probe_ip                                 0x20000120   Data           4  net_arp.o(.data)
    .data                                    0x20000124   Section       48  net_tcp.o(.data)
    socket                                   0x20000124   Data           1  net_tcp.o(.data)
    no_ack                                   0x20000125   Data           1  net_tcp.o(.data)
    port                                     0x20000126   Data           2  net_tcp.o(.data)
    sa                                       0x20000128   Data          44  net_tcp.o(.data)
    .data                                    0x20000154   Section        8  rt_task.o(.data)
    .data                                    0x2000015c   Section        8  rt_system.o(.data)
    os_lock                                  0x2000015c   Data           1  rt_system.o(.data)
    os_psh_flag                              0x2000015d   Data           1  rt_system.o(.data)
    pend_flags                               0x2000015e   Data           1  rt_system.o(.data)
    .data                                    0x20000164   Section        4  rt_time.o(.data)
    .data                                    0x20000168   Section        1  hal_cm.o(.data)
    .data                                    0x2000016c   Section        8  rt_robin.o(.data)
    .bss                                     0x20000174   Section    32768  dacfifo.o(.bss)
    .bss                                     0x20008174   Section      134  dacmodule.o(.bss)
    .bss                                     0x200081fa   Section       10  tcpthread.o(.bss)
    .bss                                     0x20008208   Section    17544  rtx_conf_cm.o(.bss)
    .bss                                     0x2000c690   Section     9420  emac_stm32f4xx.o(.bss)
    Emac                                     0x2000c690   Data          12  emac_stm32f4xx.o(.bss)
    rx_desc                                  0x2000c69c   Data         128  emac_stm32f4xx.o(.bss)
    tx_desc                                  0x2000c71c   Data          64  emac_stm32f4xx.o(.bss)
    rx_buf                                   0x2000c75c   Data        6144  emac_stm32f4xx.o(.bss)
    tx_buf                                   0x2000df5c   Data        3072  emac_stm32f4xx.o(.bss)
    .bss                                     0x2000eb5c   Section       56  usart_stm32f4xx.o(.bss)
    USART6_Info                              0x2000eb5c   Data          20  usart_stm32f4xx.o(.bss)
    USART6_TransferInfo                      0x2000eb70   Data          36  usart_stm32f4xx.o(.bss)
    .bss                                     0x2000eb94   Section      160  usbd_fs_stm32f4xx.o(.bss)
    ep                                       0x2000eb94   Data         160  usbd_fs_stm32f4xx.o(.bss)
    .bss                                     0x2000ec34   Section    48548  net_config.o(.bss)
    mem_pool                                 0x2000ec34   Data       48000  net_config.o(.bss)
    eth0_arp_table                           0x2001a7b4   Data         140  net_config.o(.bss)
    tcp_scb                                  0x2001a840   Data         408  net_config.o(.bss)
    .bss                                     0x2001a9d8   Section     2160  usbd_config_0.o(.bss)
    .bss                                     0x2001b248   Section      136  net_eth.o(.bss)
    .bss                                     0x2001b2d0   Section       12  net_ip.o(.bss)
    ip_control                               0x2001b2d0   Data          12  net_ip.o(.bss)
    .bss                                     0x2001b2dc   Section       16  net_icmp.o(.bss)
    icmp_control                             0x2001b2dc   Data          16  net_icmp.o(.bss)
    .bss                                     0x2001b2ec   Section       84  net_sys.o(.bss)
    .bss                                     0x2001b340   Section       24  net_sys.o(.bss)
    .bss                                     0x2001b358   Section       52  rt_task.o(.bss)
    .bss                                     0x2001b38c   Section       48  rt_list.o(.bss)
    .bss                                     0x2001b3bc   Section       16  net_mem.o(.bss)
    os_mutex_cb_mem_lock                     0x2001b3bc   Data          16  net_mem.o(.bss)
    .bss                                     0x2001b3cc   Section       20  net_mem.o(.bss)
    mem_control                              0x2001b3cc   Data          20  net_mem.o(.bss)
    STACK                                    0x2001b3e0   Section     1024  startup_stm32f407xx.o(STACK)

    Global Symbols

    Symbol Name                              Value     Ov Type        Size  Object(Section)

    BuildAttributes$$THM_ISAv4$E$P$D$K$B$S$7EM$VFPi3$EXTD16$VFPS$VFMA$PE$A:L22UL41UL21$X:L11$S22US41US21$IEEE1$IW$~IW$USESV6$~STKCKD$USESV7$~SHL$OSPACE$ROPI$EBA8$MICROLIB$REQ8$PRES8$EABIv2 0x00000000   Number         0  anon$$obj.o ABSOLUTE
    __ARM_use_no_argv                        0x00000000   Number         0  main.o ABSOLUTE
    _printf_a                                0x00000000   Number         0  stubs.o ABSOLUTE
    _printf_c                                0x00000000   Number         0  stubs.o ABSOLUTE
    _printf_charcount                        0x00000000   Number         0  stubs.o ABSOLUTE
    _printf_d                                0x00000000   Number         0  stubs.o ABSOLUTE
    _printf_e                                0x00000000   Number         0  stubs.o ABSOLUTE
    _printf_f                                0x00000000   Number         0  stubs.o ABSOLUTE
    _printf_flags                            0x00000000   Number         0  stubs.o ABSOLUTE
    _printf_fp_dec                           0x00000000   Number         0  stubs.o ABSOLUTE
    _printf_fp_hex                           0x00000000   Number         0  stubs.o ABSOLUTE
    _printf_g                                0x00000000   Number         0  stubs.o ABSOLUTE
    _printf_i                                0x00000000   Number         0  stubs.o ABSOLUTE
    _printf_int_dec                          0x00000000   Number         0  stubs.o ABSOLUTE
    _printf_l                                0x00000000   Number         0  stubs.o ABSOLUTE
    _printf_lc                               0x00000000   Number         0  stubs.o ABSOLUTE
    _printf_ll                               0x00000000   Number         0  stubs.o ABSOLUTE
    _printf_lld                              0x00000000   Number         0  stubs.o ABSOLUTE
    _printf_lli                              0x00000000   Number         0  stubs.o ABSOLUTE
    _printf_llo                              0x00000000   Number         0  stubs.o ABSOLUTE
    _printf_llu                              0x00000000   Number         0  stubs.o ABSOLUTE
    _printf_llx                              0x00000000   Number         0  stubs.o ABSOLUTE
    _printf_longlong_dec                     0x00000000   Number         0  stubs.o ABSOLUTE
    _printf_longlong_hex                     0x00000000   Number         0  stubs.o ABSOLUTE
    _printf_longlong_oct                     0x00000000   Number         0  stubs.o ABSOLUTE
    _printf_ls                               0x00000000   Number         0  stubs.o ABSOLUTE
    _printf_mbtowc                           0x00000000   Number         0  stubs.o ABSOLUTE
    _printf_n                                0x00000000   Number         0  stubs.o ABSOLUTE
    _printf_o                                0x00000000   Number         0  stubs.o ABSOLUTE
    _printf_p                                0x00000000   Number         0  stubs.o ABSOLUTE
    _printf_percent                          0x00000000   Number         0  stubs.o ABSOLUTE
    _printf_pre_padding                      0x00000000   Number         0  stubs.o ABSOLUTE
    _printf_return_value                     0x00000000   Number         0  stubs.o ABSOLUTE
    _printf_s                                0x00000000   Number         0  stubs.o ABSOLUTE
    _printf_sizespec                         0x00000000   Number         0  stubs.o ABSOLUTE
    _printf_str                              0x00000000   Number         0  stubs.o ABSOLUTE
    _printf_truncate_signed                  0x00000000   Number         0  stubs.o ABSOLUTE
    _printf_truncate_unsigned                0x00000000   Number         0  stubs.o ABSOLUTE
    _printf_u                                0x00000000   Number         0  stubs.o ABSOLUTE
    _printf_wc                               0x00000000   Number         0  stubs.o ABSOLUTE
    _printf_wctomb                           0x00000000   Number         0  stubs.o ABSOLUTE
    _printf_widthprec                        0x00000000   Number         0  stubs.o ABSOLUTE
    _printf_x                                0x00000000   Number         0  stubs.o ABSOLUTE
    __cpp_initialize__aeabi_                  - Undefined Weak Reference
    __cxa_finalize                            - Undefined Weak Reference
    _clock_init                               - Undefined Weak Reference
    _microlib_exit                            - Undefined Weak Reference
    _scanf_longlong                           - Undefined Weak Reference
    _scanf_real                               - Undefined Weak Reference
    _scanf_string                             - Undefined Weak Reference
    __Vectors_Size                           0x00000188   Number         0  startup_stm32f407xx.o ABSOLUTE
    __RL_RTX_VER                             0x00000478   Number         0  rt_system.o ABSOLUTE
    __MW_NET_VER                             0x06040000   Number         0  net_version.o ABSOLUTE
    __MW_USB_VER                             0x06040000   Number         0  usb_version.o ABSOLUTE
    __Vectors                                0x08000000   Data           4  startup_stm32f407xx.o(RESET)
    __Vectors_End                            0x08000188   Data           0  startup_stm32f407xx.o(RESET)
    __main                                   0x08000189   Thumb Code     0  entry.o(.ARM.Collect$$$$00000000)
    _main_stk                                0x08000189   Thumb Code     0  entry2.o(.ARM.Collect$$$$00000001)
    _main_scatterload                        0x0800018d   Thumb Code     0  entry5.o(.ARM.Collect$$$$00000004)
    __main_after_scatterload                 0x08000191   Thumb Code     0  entry5.o(.ARM.Collect$$$$00000004)
    __rt_final_cpp                           0x08000191   Thumb Code     0  entry10a.o(.ARM.Collect$$$$0000000D)
    __rt_final_exit                          0x08000191   Thumb Code     0  entry11a.o(.ARM.Collect$$$$0000000F)
    _main_clock                              0x08000191   Thumb Code     0  entry7b.o(.ARM.Collect$$$$00000008)
    _main_cpp_init                           0x08000191   Thumb Code     0  entry8b.o(.ARM.Collect$$$$0000000A)
    _main_init                               0x08000191   Thumb Code    18  rtx_conf_cm.o(.ARM.Collect$$$$000000FF)
    rt_set_PSP                               0x080001ad   Thumb Code     6  hal_cm4.o(.emb_text)
    rt_get_PSP                               0x080001b3   Thumb Code     6  hal_cm4.o(.emb_text)
    os_set_env                               0x080001b9   Thumb Code    24  hal_cm4.o(.emb_text)
    _alloc_box                               0x080001d5   Thumb Code    28  hal_cm4.o(.emb_text)
    _free_box                                0x080001f5   Thumb Code    28  hal_cm4.o(.emb_text)
    SVC_Handler                              0x08000215   Thumb Code   148  hal_cm4.o(.emb_text)
    PendSV_Handler                           0x080002b5   Thumb Code    96  hal_cm4.o(.emb_text)
    SysTick_Handler                          0x08000319   Thumb Code     8  hal_cm4.o(.emb_text)
    OS_Tick_Handler                          0x08000321   Thumb Code    12  hal_cm4.o(.emb_text)
    NMI_Handler                              0x0800032d   Thumb Code     2  stm32f4xx_it.o(.text)
    HardFault_Handler                        0x0800032f   Thumb Code     4  stm32f4xx_it.o(.text)
    MemManage_Handler                        0x08000333   Thumb Code     4  stm32f4xx_it.o(.text)
    BusFault_Handler                         0x08000337   Thumb Code     4  stm32f4xx_it.o(.text)
    UsageFault_Handler                       0x0800033b   Thumb Code     4  stm32f4xx_it.o(.text)
    DebugMon_Handler                         0x0800033f   Thumb Code     2  stm32f4xx_it.o(.text)
    TIM2_IRQHandler                          0x08000341   Thumb Code    18  stm32f4xx_it.o(.text)
    SystemClock_Config_                      0x08000359   Thumb Code   162  main.o(.text)
    SystemClock_Config                       0x080003fb   Thumb Code   158  main.o(.text)
    main                                     0x08000499   Thumb Code    22  main.o(.text)
    HAL_MspInit                              0x080004b9   Thumb Code    12  stm32f4xx_hal_msp.o(.text)
    HAL_MspDeInit                            0x080004c5   Thumb Code     8  stm32f4xx_hal_msp.o(.text)
    InitDACFIFO                              0x080004cd   Thumb Code    24  dacfifo.o(.text)
    GetDACFIFOFreeSize                       0x080004e5   Thumb Code    30  dacfifo.o(.text)
    GetDACFIFOFillSize                       0x08000503   Thumb Code    32  dacfifo.o(.text)
    PutDataIntoDACFIFO                       0x08000523   Thumb Code   134  dacfifo.o(.text)
    GetDataFromDACFIFO                       0x080005a9   Thumb Code   134  dacfifo.o(.text)
    GetDataFastFromDACFIFO                   0x0800062f   Thumb Code    66  dacfifo.o(.text)
    InitGPIO                                 0x08000675   Thumb Code   128  gpiomodule.o(.text)
    InitFastLerp                             0x08000701   Thumb Code   102  dacmodule.o(.text)
    CalcFastLerp                             0x08000767   Thumb Code   144  dacmodule.o(.text)
    UpdateFastLerp                           0x080007f7   Thumb Code    92  dacmodule.o(.text)
    InitLerp                                 0x08000853   Thumb Code   110  dacmodule.o(.text)
    CalcLerp                                 0x080008c1   Thumb Code   148  dacmodule.o(.text)
    UpdateLerp                               0x08000955   Thumb Code    96  dacmodule.o(.text)
    InitDAC                                  0x080009b5   Thumb Code   316  dacmodule.o(.text)
    DeInitDAC                                0x08000af1   Thumb Code    18  dacmodule.o(.text)
    ProcessDACFIFO                           0x08000b03   Thumb Code    78  dacmodule.o(.text)
    USBD_CDC0_ACM_Initialize                 0x08000b7d   Thumb Code     2  usbd_user_cdc_0.o(.text)
    USBD_CDC0_ACM_Uninitialize               0x08000b7f   Thumb Code     2  usbd_user_cdc_0.o(.text)
    USBD_CDC0_ACM_Reset                      0x08000b81   Thumb Code     2  usbd_user_cdc_0.o(.text)
    USBD_CDC0_ACM_SetLineCoding              0x08000b83   Thumb Code     6  usbd_user_cdc_0.o(.text)
    USBD_CDC0_ACM_GetLineCoding              0x08000b89   Thumb Code     6  usbd_user_cdc_0.o(.text)
    USBD_CDC0_ACM_SetControlLineState        0x08000b8f   Thumb Code     6  usbd_user_cdc_0.o(.text)
    Init_TCPThread                           0x08000b95   Thumb Code    30  tcpthread.o(.text)
    sendbuffer                               0x08000bb3   Thumb Code    76  tcpthread.o(.text)
    tcp_cmd_callback                         0x08000bff   Thumb Code    92  tcpthread.o(.text)
    tcp_callback                             0x08000c5b   Thumb Code   304  tcpthread.o(.text)
    TCPLoop                                  0x08000d8b   Thumb Code   152  tcpthread.o(.text)
    Thread                                   0x08000e23   Thumb Code    10  tcpthread.o(.text)
    brev16                                   0x08000e65   Thumb Code    74  cnclerp.o(.text)
    brev8                                    0x08000eaf   Thumb Code    48  cnclerp.o(.text)
    brev4                                    0x08000edf   Thumb Code    32  cnclerp.o(.text)
    brev2                                    0x08000eff   Thumb Code    14  cnclerp.o(.text)
    brev                                     0x08000f0d   Thumb Code   134  cnclerp.o(.text)
    UpdateCNCLerp                            0x08000f93   Thumb Code   240  cnclerp.o(.text)
    os_idle_demon                            0x08001089   Thumb Code     4  rtx_conf_cm.o(.text)
    os_tick_init                             0x0800108d   Thumb Code     6  rtx_conf_cm.o(.text)
    os_tick_val                              0x08001093   Thumb Code     4  rtx_conf_cm.o(.text)
    os_tick_ovf                              0x08001097   Thumb Code     4  rtx_conf_cm.o(.text)
    os_tick_irqack                           0x0800109b   Thumb Code     2  rtx_conf_cm.o(.text)
    os_error                                 0x0800109d   Thumb Code    32  rtx_conf_cm.o(.text)
    ETH_IRQHandler                           0x08001a87   Thumb Code   110  emac_stm32f4xx.o(.text)
    OTG_FS_IRQHandler                        0x08001e3f   Thumb Code    38  otg_fs_stm32f4xx.o(.text)
    OTG_FS_PinsConfigure                     0x08001e65   Thumb Code   290  otg_fs_stm32f4xx.o(.text)
    OTG_FS_PinsUnconfigure                   0x08001f87   Thumb Code   188  otg_fs_stm32f4xx.o(.text)
    OTG_FS_PinVbusOnOff                      0x08002043   Thumb Code    26  otg_fs_stm32f4xx.o(.text)
    OTG_FS_PinGetOC                          0x0800205d   Thumb Code    32  otg_fs_stm32f4xx.o(.text)
    USART_IRQHandler                         0x08003243   Thumb Code   604  usart_stm32f4xx.o(.text)
    USART6_IRQHandler                        0x08003557   Thumb Code    10  usart_stm32f4xx.o(.text)
    USBD_FS_IRQ                              0x080043bb   Thumb Code  1358  usbd_fs_stm32f4xx.o(.text)
    HAL_InitTick                             0x0800491f   Thumb Code    36  stm32f4xx_hal.o(.text)
    HAL_Init                                 0x08004943   Thumb Code    54  stm32f4xx_hal.o(.text)
    HAL_DeInit                               0x0800497b   Thumb Code    64  stm32f4xx_hal.o(.text)
    HAL_IncTick                              0x080049bb   Thumb Code    12  stm32f4xx_hal.o(.text)
    HAL_GetTick                              0x080049c7   Thumb Code     6  stm32f4xx_hal.o(.text)
    HAL_Delay                                0x080049cd   Thumb Code    26  stm32f4xx_hal.o(.text)
    HAL_SuspendTick                          0x080049e7   Thumb Code    18  stm32f4xx_hal.o(.text)
    HAL_ResumeTick                           0x080049f9   Thumb Code    18  stm32f4xx_hal.o(.text)
    HAL_GetHalVersion                        0x08004a0b   Thumb Code     4  stm32f4xx_hal.o(.text)
    HAL_GetREVID                             0x08004a0f   Thumb Code     8  stm32f4xx_hal.o(.text)
    HAL_GetDEVID                             0x08004a17   Thumb Code    10  stm32f4xx_hal.o(.text)
    HAL_DBGMCU_EnableDBGSleepMode            0x08004a21   Thumb Code    14  stm32f4xx_hal.o(.text)
    HAL_DBGMCU_DisableDBGSleepMode           0x08004a2f   Thumb Code    14  stm32f4xx_hal.o(.text)
    HAL_DBGMCU_EnableDBGStopMode             0x08004a3d   Thumb Code    14  stm32f4xx_hal.o(.text)
    HAL_DBGMCU_DisableDBGStopMode            0x08004a4b   Thumb Code    14  stm32f4xx_hal.o(.text)
    HAL_DBGMCU_EnableDBGStandbyMode          0x08004a59   Thumb Code    14  stm32f4xx_hal.o(.text)
    HAL_DBGMCU_DisableDBGStandbyMode         0x08004a67   Thumb Code    14  stm32f4xx_hal.o(.text)
    HAL_EnableCompensationCell               0x08004a75   Thumb Code    22  stm32f4xx_hal.o(.text)
    HAL_DisableCompensationCell              0x08004a8b   Thumb Code    24  stm32f4xx_hal.o(.text)
    HAL_NVIC_SetPriorityGrouping             0x08004add   Thumb Code    36  stm32f4xx_hal_cortex.o(.text)
    HAL_NVIC_SetPriority                     0x08004b01   Thumb Code   124  stm32f4xx_hal_cortex.o(.text)
    HAL_NVIC_EnableIRQ                       0x08004b7d   Thumb Code    26  stm32f4xx_hal_cortex.o(.text)
    HAL_NVIC_DisableIRQ                      0x08004b97   Thumb Code    22  stm32f4xx_hal_cortex.o(.text)
    HAL_NVIC_SystemReset                     0x08004bad   Thumb Code    64  stm32f4xx_hal_cortex.o(.text)
    HAL_SYSTICK_Config                       0x08004bed   Thumb Code    52  stm32f4xx_hal_cortex.o(.text)
    HAL_NVIC_GetPriorityGrouping             0x08004c21   Thumb Code     8  stm32f4xx_hal_cortex.o(.text)
    HAL_NVIC_GetPriority                     0x08004c29   Thumb Code   138  stm32f4xx_hal_cortex.o(.text)
    HAL_NVIC_SetPendingIRQ                   0x08004cb3   Thumb Code    24  stm32f4xx_hal_cortex.o(.text)
    HAL_NVIC_GetPendingIRQ                   0x08004ccb   Thumb Code    38  stm32f4xx_hal_cortex.o(.text)
    HAL_NVIC_ClearPendingIRQ                 0x08004cf1   Thumb Code    22  stm32f4xx_hal_cortex.o(.text)
    HAL_NVIC_GetActive                       0x08004d07   Thumb Code    38  stm32f4xx_hal_cortex.o(.text)
    HAL_SYSTICK_CLKSourceConfig              0x08004d2d   Thumb Code    40  stm32f4xx_hal_cortex.o(.text)
    HAL_SYSTICK_Callback                     0x08004d55   Thumb Code     2  stm32f4xx_hal_cortex.o(.text)
    HAL_SYSTICK_IRQHandler                   0x08004d57   Thumb Code     8  stm32f4xx_hal_cortex.o(.text)
    HAL_DAC_MspInit                          0x08004d81   Thumb Code     2  stm32f4xx_hal_dac.o(.text)
    HAL_DAC_Init                             0x08004d83   Thumb Code    40  stm32f4xx_hal_dac.o(.text)
    HAL_DAC_MspDeInit                        0x08004dab   Thumb Code     2  stm32f4xx_hal_dac.o(.text)
    HAL_DAC_DeInit                           0x08004dad   Thumb Code    36  stm32f4xx_hal_dac.o(.text)
    HAL_DAC_Start                            0x08004dd1   Thumb Code   140  stm32f4xx_hal_dac.o(.text)
    HAL_DAC_Stop                             0x08004e5d   Thumb Code    24  stm32f4xx_hal_dac.o(.text)
    HAL_DAC_ErrorCallbackCh1                 0x08004e75   Thumb Code     2  stm32f4xx_hal_dac.o(.text)
    HAL_DAC_ConvHalfCpltCallbackCh1          0x08004e91   Thumb Code     2  stm32f4xx_hal_dac.o(.text)
    HAL_DAC_ConvCpltCallbackCh1              0x08004ea1   Thumb Code     2  stm32f4xx_hal_dac.o(.text)
    HAL_DAC_Start_DMA                        0x08004eb5   Thumb Code   262  stm32f4xx_hal_dac.o(.text)
    HAL_DAC_Stop_DMA                         0x08004fbb   Thumb Code    74  stm32f4xx_hal_dac.o(.text)
    HAL_DAC_GetValue                         0x08005005   Thumb Code    16  stm32f4xx_hal_dac.o(.text)
    HAL_DAC_DMAUnderrunCallbackCh1           0x08005015   Thumb Code     2  stm32f4xx_hal_dac.o(.text)
    HAL_DAC_IRQHandler                       0x08005017   Thumb Code   110  stm32f4xx_hal_dac.o(.text)
    HAL_DAC_ConfigChannel                    0x08005085   Thumb Code    90  stm32f4xx_hal_dac.o(.text)
    HAL_DAC_SetValue                         0x080050df   Thumb Code    44  stm32f4xx_hal_dac.o(.text)
    HAL_DAC_GetState                         0x0800510b   Thumb Code     6  stm32f4xx_hal_dac.o(.text)
    HAL_DAC_GetError                         0x08005111   Thumb Code     6  stm32f4xx_hal_dac.o(.text)
    HAL_DACEx_DualGetValue                   0x08005131   Thumb Code    20  stm32f4xx_hal_dac_ex.o(.text)
    HAL_DACEx_TriangleWaveGenerate           0x08005145   Thumb Code    66  stm32f4xx_hal_dac_ex.o(.text)
    HAL_DACEx_NoiseWaveGenerate              0x08005187   Thumb Code    66  stm32f4xx_hal_dac_ex.o(.text)
    HAL_DACEx_DualSetValue                   0x080051c9   Thumb Code    36  stm32f4xx_hal_dac_ex.o(.text)
    HAL_DACEx_ConvCpltCallbackCh2            0x080051ed   Thumb Code     2  stm32f4xx_hal_dac_ex.o(.text)
    HAL_DACEx_ConvHalfCpltCallbackCh2        0x080051ef   Thumb Code     2  stm32f4xx_hal_dac_ex.o(.text)
    HAL_DACEx_ErrorCallbackCh2               0x080051f1   Thumb Code     2  stm32f4xx_hal_dac_ex.o(.text)
    HAL_DACEx_DMAUnderrunCallbackCh2         0x080051f3   Thumb Code     2  stm32f4xx_hal_dac_ex.o(.text)
    DAC_DMAConvCpltCh2                       0x080051f5   Thumb Code    18  stm32f4xx_hal_dac_ex.o(.text)
    DAC_DMAHalfConvCpltCh2                   0x08005207   Thumb Code    14  stm32f4xx_hal_dac_ex.o(.text)
    DAC_DMAErrorCh2                          0x08005215   Thumb Code    26  stm32f4xx_hal_dac_ex.o(.text)
    HAL_DMA_Init                             0x08005231   Thumb Code   120  stm32f4xx_hal_dma.o(.text)
    HAL_DMA_DeInit                           0x080052a9   Thumb Code  3952  stm32f4xx_hal_dma.o(.text)
    HAL_DMA_Start                            0x08006245   Thumb Code    82  stm32f4xx_hal_dma.o(.text)
    HAL_DMA_Start_IT                         0x08006297   Thumb Code   142  stm32f4xx_hal_dma.o(.text)
    HAL_DMA_Abort                            0x08006325   Thumb Code    94  stm32f4xx_hal_dma.o(.text)
    HAL_DMA_PollForTransfer                  0x08006383   Thumb Code 10074  stm32f4xx_hal_dma.o(.text)
    HAL_DMA_IRQHandler                       0x08008add   Thumb Code  9776  stm32f4xx_hal_dma.o(.text)
    HAL_DMA_GetState                         0x0800b10d   Thumb Code     8  stm32f4xx_hal_dma.o(.text)
    HAL_DMA_GetError                         0x0800b115   Thumb Code     6  stm32f4xx_hal_dma.o(.text)
    HAL_GPIO_Init                            0x0800b125   Thumb Code   472  stm32f4xx_hal_gpio.o(.text)
    HAL_GPIO_DeInit                          0x0800b2fd   Thumb Code   326  stm32f4xx_hal_gpio.o(.text)
    HAL_GPIO_ReadPin                         0x0800b443   Thumb Code    16  stm32f4xx_hal_gpio.o(.text)
    HAL_GPIO_WritePin                        0x0800b453   Thumb Code    12  stm32f4xx_hal_gpio.o(.text)
    HAL_GPIO_TogglePin                       0x0800b45f   Thumb Code     8  stm32f4xx_hal_gpio.o(.text)
    HAL_GPIO_LockPin                         0x0800b467   Thumb Code    46  stm32f4xx_hal_gpio.o(.text)
    HAL_GPIO_EXTI_Callback                   0x0800b495   Thumb Code     2  stm32f4xx_hal_gpio.o(.text)
    HAL_GPIO_EXTI_IRQHandler                 0x0800b497   Thumb Code    28  stm32f4xx_hal_gpio.o(.text)
    HAL_RCC_DeInit                           0x0800b4e5   Thumb Code    96  stm32f4xx_hal_rcc.o(.text)
    HAL_RCC_OscConfig                        0x0800b545   Thumb Code  1024  stm32f4xx_hal_rcc.o(.text)
    HAL_RCC_ClockConfig                      0x0800b945   Thumb Code   708  stm32f4xx_hal_rcc.o(.text)
    HAL_RCC_MCOConfig                        0x0800bc09   Thumb Code   178  stm32f4xx_hal_rcc.o(.text)
    HAL_RCC_EnableCSS                        0x0800bcbb   Thumb Code     8  stm32f4xx_hal_rcc.o(.text)
    HAL_RCC_DisableCSS                       0x0800bcc3   Thumb Code     8  stm32f4xx_hal_rcc.o(.text)
    HAL_RCC_GetSysClockFreq                  0x0800bccb   Thumb Code   182  stm32f4xx_hal_rcc.o(.text)
    HAL_RCC_GetHCLKFreq                      0x0800bd81   Thumb Code    44  stm32f4xx_hal_rcc.o(.text)
    HAL_RCC_GetPCLK1Freq                     0x0800bdad   Thumb Code    38  stm32f4xx_hal_rcc.o(.text)
    HAL_RCC_GetPCLK2Freq                     0x0800bdd3   Thumb Code    38  stm32f4xx_hal_rcc.o(.text)
    HAL_RCC_GetOscConfig                     0x0800bdf9   Thumb Code   286  stm32f4xx_hal_rcc.o(.text)
    HAL_RCC_GetClockConfig                   0x0800bf17   Thumb Code    66  stm32f4xx_hal_rcc.o(.text)
    HAL_RCC_CSSCallback                      0x0800bf59   Thumb Code     2  stm32f4xx_hal_rcc.o(.text)
    HAL_RCC_NMI_IRQHandler                   0x0800bf5b   Thumb Code    30  stm32f4xx_hal_rcc.o(.text)
    TIM_Base_SetConfig                       0x0800bf91   Thumb Code   184  stm32f4xx_hal_tim.o(.text)
    HAL_TIM_Base_MspInit                     0x0800c049   Thumb Code     2  stm32f4xx_hal_tim.o(.text)
    HAL_TIM_Base_Init                        0x0800c04b   Thumb Code    52  stm32f4xx_hal_tim.o(.text)
    HAL_TIM_Base_MspDeInit                   0x0800c07f   Thumb Code     2  stm32f4xx_hal_tim.o(.text)
    HAL_TIM_Base_DeInit                      0x0800c081   Thumb Code    70  stm32f4xx_hal_tim.o(.text)
    HAL_TIM_Base_Start                       0x0800c0c7   Thumb Code    30  stm32f4xx_hal_tim.o(.text)
    HAL_TIM_Base_Stop                        0x0800c0e5   Thumb Code    56  stm32f4xx_hal_tim.o(.text)
    HAL_TIM_Base_Start_IT                    0x0800c11d   Thumb Code    30  stm32f4xx_hal_tim.o(.text)
    HAL_TIM_Base_Stop_IT                     0x0800c13b   Thumb Code    56  stm32f4xx_hal_tim.o(.text)
    HAL_TIM_ErrorCallback                    0x0800c173   Thumb Code     2  stm32f4xx_hal_tim.o(.text)
    TIM_DMAError                             0x0800c175   Thumb Code    20  stm32f4xx_hal_tim.o(.text)
    HAL_TIM_PeriodElapsedCallback            0x0800c189   Thumb Code     2  stm32f4xx_hal_tim.o(.text)
    HAL_TIM_Base_Start_DMA                   0x0800c19f   Thumb Code    98  stm32f4xx_hal_tim.o(.text)
    HAL_TIM_Base_Stop_DMA                    0x0800c201   Thumb Code    62  stm32f4xx_hal_tim.o(.text)
    HAL_TIM_OC_MspInit                       0x0800c23f   Thumb Code     2  stm32f4xx_hal_tim.o(.text)
    HAL_TIM_OC_Init                          0x0800c241   Thumb Code    52  stm32f4xx_hal_tim.o(.text)
    HAL_TIM_OC_MspDeInit                     0x0800c275   Thumb Code     2  stm32f4xx_hal_tim.o(.text)
    HAL_TIM_OC_DeInit                        0x0800c277   Thumb Code    70  stm32f4xx_hal_tim.o(.text)
    TIM_CCxChannelCmd                        0x0800c2bd   Thumb Code    28  stm32f4xx_hal_tim.o(.text)
    HAL_TIM_OC_Start                         0x0800c2d9   Thumb Code    68  stm32f4xx_hal_tim.o(.text)
    HAL_TIM_OC_Stop                          0x0800c31d   Thumb Code   170  stm32f4xx_hal_tim.o(.text)
    HAL_TIM_OC_Start_IT                      0x0800c3c7   Thumb Code   144  stm32f4xx_hal_tim.o(.text)
    HAL_TIM_OC_Stop_IT                       0x0800c457   Thumb Code   196  stm32f4xx_hal_tim.o(.text)
    HAL_TIM_PWM_PulseFinishedCallback        0x0800c51b   Thumb Code     2  stm32f4xx_hal_tim.o(.text)
    TIM_DMADelayPulseCplt                    0x0800c51d   Thumb Code    70  stm32f4xx_hal_tim.o(.text)
    HAL_TIM_OC_Start_DMA                     0x0800c563   Thumb Code   312  stm32f4xx_hal_tim.o(.text)
    HAL_TIM_OC_Stop_DMA                      0x0800c69b   Thumb Code   202  stm32f4xx_hal_tim.o(.text)
    HAL_TIM_PWM_MspInit                      0x0800c765   Thumb Code     2  stm32f4xx_hal_tim.o(.text)
    HAL_TIM_PWM_Init                         0x0800c767   Thumb Code    52  stm32f4xx_hal_tim.o(.text)
    HAL_TIM_PWM_MspDeInit                    0x0800c79b   Thumb Code     2  stm32f4xx_hal_tim.o(.text)
    HAL_TIM_PWM_DeInit                       0x0800c79d   Thumb Code    70  stm32f4xx_hal_tim.o(.text)
    HAL_TIM_PWM_Start                        0x0800c7e3   Thumb Code    78  stm32f4xx_hal_tim.o(.text)
    HAL_TIM_PWM_Stop                         0x0800c831   Thumb Code   126  stm32f4xx_hal_tim.o(.text)
    HAL_TIM_PWM_Start_IT                     0x0800c8af   Thumb Code   144  stm32f4xx_hal_tim.o(.text)
    HAL_TIM_PWM_Stop_IT                      0x0800c93f   Thumb Code   196  stm32f4xx_hal_tim.o(.text)
    HAL_TIM_PWM_Start_DMA                    0x0800ca03   Thumb Code   312  stm32f4xx_hal_tim.o(.text)
    HAL_TIM_PWM_Stop_DMA                     0x0800cb3b   Thumb Code   202  stm32f4xx_hal_tim.o(.text)
    HAL_TIM_IC_MspInit                       0x0800cc05   Thumb Code     2  stm32f4xx_hal_tim.o(.text)
    HAL_TIM_IC_Init                          0x0800cc07   Thumb Code    62  stm32f4xx_hal_tim.o(.text)
    HAL_TIM_IC_MspDeInit                     0x0800cc45   Thumb Code     2  stm32f4xx_hal_tim.o(.text)
    HAL_TIM_IC_DeInit                        0x0800cc47   Thumb Code    70  stm32f4xx_hal_tim.o(.text)
    HAL_TIM_IC_Start                         0x0800cc8d   Thumb Code    32  stm32f4xx_hal_tim.o(.text)
    HAL_TIM_IC_Stop                          0x0800ccad   Thumb Code    58  stm32f4xx_hal_tim.o(.text)
    HAL_TIM_IC_Start_IT                      0x0800cce7   Thumb Code   108  stm32f4xx_hal_tim.o(.text)
    HAL_TIM_IC_Stop_IT                       0x0800cd53   Thumb Code   134  stm32f4xx_hal_tim.o(.text)
    HAL_TIM_IC_CaptureCallback               0x0800cdd9   Thumb Code     2  stm32f4xx_hal_tim.o(.text)
    TIM_DMACaptureCplt                       0x0800cddb   Thumb Code    70  stm32f4xx_hal_tim.o(.text)
    HAL_TIM_IC_Start_DMA                     0x0800ce21   Thumb Code   276  stm32f4xx_hal_tim.o(.text)
    HAL_TIM_IC_Stop_DMA                      0x0800cf35   Thumb Code   140  stm32f4xx_hal_tim.o(.text)
    HAL_TIM_OnePulse_MspInit                 0x0800cfc1   Thumb Code     2  stm32f4xx_hal_tim.o(.text)
    HAL_TIM_OnePulse_Init                    0x0800cfc3   Thumb Code    76  stm32f4xx_hal_tim.o(.text)
    HAL_TIM_OnePulse_MspDeInit               0x0800d00f   Thumb Code     2  stm32f4xx_hal_tim.o(.text)
    HAL_TIM_OnePulse_DeInit                  0x0800d011   Thumb Code    70  stm32f4xx_hal_tim.o(.text)
    HAL_TIM_OnePulse_Start                   0x0800d057   Thumb Code    66  stm32f4xx_hal_tim.o(.text)
    HAL_TIM_OnePulse_Stop                    0x0800d099   Thumb Code   130  stm32f4xx_hal_tim.o(.text)
    HAL_TIM_OnePulse_Start_IT                0x0800d11b   Thumb Code    90  stm32f4xx_hal_tim.o(.text)
    HAL_TIM_OnePulse_Stop_IT                 0x0800d175   Thumb Code   154  stm32f4xx_hal_tim.o(.text)
    HAL_TIM_Encoder_MspInit                  0x0800d20f   Thumb Code     2  stm32f4xx_hal_tim.o(.text)
    HAL_TIM_Encoder_Init                     0x0800d211   Thumb Code   180  stm32f4xx_hal_tim.o(.text)
    HAL_TIM_Encoder_MspDeInit                0x0800d2c5   Thumb Code     2  stm32f4xx_hal_tim.o(.text)
    HAL_TIM_Encoder_DeInit                   0x0800d2c7   Thumb Code    70  stm32f4xx_hal_tim.o(.text)
    HAL_TIM_Encoder_Start                    0x0800d30d   Thumb Code    78  stm32f4xx_hal_tim.o(.text)
    HAL_TIM_Encoder_Stop                     0x0800d35b   Thumb Code   104  stm32f4xx_hal_tim.o(.text)
    HAL_TIM_Encoder_Start_IT                 0x0800d3c3   Thumb Code   126  stm32f4xx_hal_tim.o(.text)
    HAL_TIM_Encoder_Stop_IT                  0x0800d441   Thumb Code   160  stm32f4xx_hal_tim.o(.text)
    HAL_TIM_Encoder_Start_DMA                0x0800d4e1   Thumb Code   328  stm32f4xx_hal_tim.o(.text)
    HAL_TIM_Encoder_Stop_DMA                 0x0800d629   Thumb Code   152  stm32f4xx_hal_tim.o(.text)
    HAL_TIM_TriggerCallback                  0x0800d6c1   Thumb Code     2  stm32f4xx_hal_tim.o(.text)
    HAL_TIM_OC_DelayElapsedCallback          0x0800d6c3   Thumb Code     2  stm32f4xx_hal_tim.o(.text)
    HAL_TIM_IRQHandler                       0x0800d6c5   Thumb Code   406  stm32f4xx_hal_tim.o(.text)
    TIM_OC4_SetConfig                        0x0800d85b   Thumb Code    88  stm32f4xx_hal_tim.o(.text)
    TIM_OC2_SetConfig                        0x0800d92d   Thumb Code   112  stm32f4xx_hal_tim.o(.text)
    HAL_TIM_OC_ConfigChannel                 0x0800da03   Thumb Code   116  stm32f4xx_hal_tim.o(.text)
    TIM_TI1_SetConfig                        0x0800db31   Thumb Code   122  stm32f4xx_hal_tim.o(.text)
    HAL_TIM_IC_ConfigChannel                 0x0800dbab   Thumb Code   224  stm32f4xx_hal_tim.o(.text)
    HAL_TIM_PWM_ConfigChannel                0x0800dc8b   Thumb Code   294  stm32f4xx_hal_tim.o(.text)
    HAL_TIM_OnePulse_ConfigChannel           0x0800ddb1   Thumb Code   286  stm32f4xx_hal_tim.o(.text)
    HAL_TIM_DMABurst_WriteStart              0x0800dee3   Thumb Code   366  stm32f4xx_hal_tim.o(.text)
    HAL_TIM_DMABurst_WriteStop               0x0800e051   Thumb Code   128  stm32f4xx_hal_tim.o(.text)
    HAL_TIM_DMABurst_ReadStart               0x0800e0d1   Thumb Code   366  stm32f4xx_hal_tim.o(.text)
    HAL_TIM_DMABurst_ReadStop                0x0800e23f   Thumb Code   128  stm32f4xx_hal_tim.o(.text)
    HAL_TIM_GenerateEvent                    0x0800e2bf   Thumb Code    54  stm32f4xx_hal_tim.o(.text)
    HAL_TIM_ConfigOCrefClear                 0x0800e30d   Thumb Code   252  stm32f4xx_hal_tim.o(.text)
    HAL_TIM_ConfigClockSource                0x0800e473   Thumb Code   306  stm32f4xx_hal_tim.o(.text)
    HAL_TIM_ConfigTI1Input                   0x0800e5a5   Thumb Code    24  stm32f4xx_hal_tim.o(.text)
    HAL_TIM_SlaveConfigSynchronization       0x0800e661   Thumb Code    86  stm32f4xx_hal_tim.o(.text)
    HAL_TIM_SlaveConfigSynchronization_IT    0x0800e6b7   Thumb Code    86  stm32f4xx_hal_tim.o(.text)
    HAL_TIM_ReadCapturedValue                0x0800e70d   Thumb Code    84  stm32f4xx_hal_tim.o(.text)
    HAL_TIM_Base_GetState                    0x0800e761   Thumb Code     8  stm32f4xx_hal_tim.o(.text)
    HAL_TIM_OC_GetState                      0x0800e769   Thumb Code     8  stm32f4xx_hal_tim.o(.text)
    HAL_TIM_PWM_GetState                     0x0800e771   Thumb Code     8  stm32f4xx_hal_tim.o(.text)
    HAL_TIM_IC_GetState                      0x0800e779   Thumb Code     8  stm32f4xx_hal_tim.o(.text)
    HAL_TIM_OnePulse_GetState                0x0800e781   Thumb Code     8  stm32f4xx_hal_tim.o(.text)
    HAL_TIM_Encoder_GetState                 0x0800e789   Thumb Code     8  stm32f4xx_hal_tim.o(.text)
    HAL_TIMEx_HallSensor_MspInit             0x0800e791   Thumb Code     2  stm32f4xx_hal_tim_ex.o(.text)
    HAL_TIMEx_HallSensor_Init                0x0800e793   Thumb Code   196  stm32f4xx_hal_tim_ex.o(.text)
    HAL_TIMEx_HallSensor_MspDeInit           0x0800e857   Thumb Code     2  stm32f4xx_hal_tim_ex.o(.text)
    HAL_TIMEx_HallSensor_DeInit              0x0800e859   Thumb Code    70  stm32f4xx_hal_tim_ex.o(.text)
    HAL_TIMEx_HallSensor_Start               0x0800e89f   Thumb Code    30  stm32f4xx_hal_tim_ex.o(.text)
    HAL_TIMEx_HallSensor_Stop                0x0800e8bd   Thumb Code    56  stm32f4xx_hal_tim_ex.o(.text)
    HAL_TIMEx_HallSensor_Start_IT            0x0800e8f5   Thumb Code    42  stm32f4xx_hal_tim_ex.o(.text)
    HAL_TIMEx_HallSensor_Stop_IT             0x0800e91f   Thumb Code    68  stm32f4xx_hal_tim_ex.o(.text)
    HAL_TIMEx_HallSensor_Start_DMA           0x0800e963   Thumb Code   106  stm32f4xx_hal_tim_ex.o(.text)
    HAL_TIMEx_HallSensor_Stop_DMA            0x0800e9cd   Thumb Code    68  stm32f4xx_hal_tim_ex.o(.text)
    HAL_TIMEx_OCN_Start                      0x0800ea2d   Thumb Code    44  stm32f4xx_hal_tim_ex.o(.text)
    HAL_TIMEx_OCN_Stop                       0x0800ea59   Thumb Code    96  stm32f4xx_hal_tim_ex.o(.text)
    HAL_TIMEx_OCN_Start_IT                   0x0800eab9   Thumb Code   132  stm32f4xx_hal_tim_ex.o(.text)
    HAL_TIMEx_OCN_Stop_IT                    0x0800eb3d   Thumb Code   196  stm32f4xx_hal_tim_ex.o(.text)
    HAL_TIMEx_OCN_Start_DMA                  0x0800ec01   Thumb Code   272  stm32f4xx_hal_tim_ex.o(.text)
    HAL_TIMEx_OCN_Stop_DMA                   0x0800ed11   Thumb Code   192  stm32f4xx_hal_tim_ex.o(.text)
    HAL_TIMEx_PWMN_Start                     0x0800edd1   Thumb Code    44  stm32f4xx_hal_tim_ex.o(.text)
    HAL_TIMEx_PWMN_Stop                      0x0800edfd   Thumb Code    96  stm32f4xx_hal_tim_ex.o(.text)
    HAL_TIMEx_PWMN_Start_IT                  0x0800ee5d   Thumb Code   132  stm32f4xx_hal_tim_ex.o(.text)
    HAL_TIMEx_PWMN_Stop_IT                   0x0800eee1   Thumb Code   196  stm32f4xx_hal_tim_ex.o(.text)
    HAL_TIMEx_PWMN_Start_DMA                 0x0800efa5   Thumb Code   272  stm32f4xx_hal_tim_ex.o(.text)
    HAL_TIMEx_PWMN_Stop_DMA                  0x0800f0b5   Thumb Code   178  stm32f4xx_hal_tim_ex.o(.text)
    HAL_TIMEx_OnePulseN_Start                0x0800f167   Thumb Code    32  stm32f4xx_hal_tim_ex.o(.text)
    HAL_TIMEx_OnePulseN_Stop                 0x0800f187   Thumb Code    96  stm32f4xx_hal_tim_ex.o(.text)
    HAL_TIMEx_OnePulseN_Start_IT             0x0800f1e7   Thumb Code    56  stm32f4xx_hal_tim_ex.o(.text)
    HAL_TIMEx_OnePulseN_Stop_IT              0x0800f21f   Thumb Code   120  stm32f4xx_hal_tim_ex.o(.text)
    HAL_TIMEx_ConfigCommutationEvent         0x0800f297   Thumb Code   110  stm32f4xx_hal_tim_ex.o(.text)
    HAL_TIMEx_ConfigCommutationEvent_IT      0x0800f305   Thumb Code   122  stm32f4xx_hal_tim_ex.o(.text)
    HAL_TIMEx_CommutationCallback            0x0800f37f   Thumb Code     2  stm32f4xx_hal_tim_ex.o(.text)
    TIMEx_DMACommutationCplt                 0x0800f381   Thumb Code    20  stm32f4xx_hal_tim_ex.o(.text)
    HAL_TIMEx_ConfigCommutationEvent_DMA     0x0800f395   Thumb Code   146  stm32f4xx_hal_tim_ex.o(.text)
    HAL_TIMEx_MasterConfigSynchronization    0x0800f427   Thumb Code    98  stm32f4xx_hal_tim_ex.o(.text)
    HAL_TIMEx_ConfigBreakDeadTime            0x0800f489   Thumb Code    80  stm32f4xx_hal_tim_ex.o(.text)
    HAL_TIMEx_RemapConfig                    0x0800f4d9   Thumb Code    48  stm32f4xx_hal_tim_ex.o(.text)
    HAL_TIMEx_BreakCallback                  0x0800f509   Thumb Code     2  stm32f4xx_hal_tim_ex.o(.text)
    HAL_TIMEx_HallSensor_GetState            0x0800f50b   Thumb Code     8  stm32f4xx_hal_tim_ex.o(.text)
    Reset_Handler                            0x0800f519   Thumb Code     8  startup_stm32f407xx.o(.text)
    ADC_IRQHandler                           0x0800f533   Thumb Code     0  startup_stm32f407xx.o(.text)
    CAN1_RX0_IRQHandler                      0x0800f533   Thumb Code     0  startup_stm32f407xx.o(.text)
    CAN1_RX1_IRQHandler                      0x0800f533   Thumb Code     0  startup_stm32f407xx.o(.text)
    CAN1_SCE_IRQHandler                      0x0800f533   Thumb Code     0  startup_stm32f407xx.o(.text)
    CAN1_TX_IRQHandler                       0x0800f533   Thumb Code     0  startup_stm32f407xx.o(.text)
    CAN2_RX0_IRQHandler                      0x0800f533   Thumb Code     0  startup_stm32f407xx.o(.text)
    CAN2_RX1_IRQHandler                      0x0800f533   Thumb Code     0  startup_stm32f407xx.o(.text)
    CAN2_SCE_IRQHandler                      0x0800f533   Thumb Code     0  startup_stm32f407xx.o(.text)
    CAN2_TX_IRQHandler                       0x0800f533   Thumb Code     0  startup_stm32f407xx.o(.text)
    DCMI_IRQHandler                          0x0800f533   Thumb Code     0  startup_stm32f407xx.o(.text)
    DMA1_Stream0_IRQHandler                  0x0800f533   Thumb Code     0  startup_stm32f407xx.o(.text)
    DMA1_Stream1_IRQHandler                  0x0800f533   Thumb Code     0  startup_stm32f407xx.o(.text)
    DMA1_Stream2_IRQHandler                  0x0800f533   Thumb Code     0  startup_stm32f407xx.o(.text)
    DMA1_Stream3_IRQHandler                  0x0800f533   Thumb Code     0  startup_stm32f407xx.o(.text)
    DMA1_Stream4_IRQHandler                  0x0800f533   Thumb Code     0  startup_stm32f407xx.o(.text)
    DMA1_Stream5_IRQHandler                  0x0800f533   Thumb Code     0  startup_stm32f407xx.o(.text)
    DMA1_Stream6_IRQHandler                  0x0800f533   Thumb Code     0  startup_stm32f407xx.o(.text)
    DMA1_Stream7_IRQHandler                  0x0800f533   Thumb Code     0  startup_stm32f407xx.o(.text)
    DMA2_Stream0_IRQHandler                  0x0800f533   Thumb Code     0  startup_stm32f407xx.o(.text)
    DMA2_Stream1_IRQHandler                  0x0800f533   Thumb Code     0  startup_stm32f407xx.o(.text)
    DMA2_Stream2_IRQHandler                  0x0800f533   Thumb Code     0  startup_stm32f407xx.o(.text)
    DMA2_Stream3_IRQHandler                  0x0800f533   Thumb Code     0  startup_stm32f407xx.o(.text)
    DMA2_Stream4_IRQHandler                  0x0800f533   Thumb Code     0  startup_stm32f407xx.o(.text)
    DMA2_Stream5_IRQHandler                  0x0800f533   Thumb Code     0  startup_stm32f407xx.o(.text)
    DMA2_Stream6_IRQHandler                  0x0800f533   Thumb Code     0  startup_stm32f407xx.o(.text)
    DMA2_Stream7_IRQHandler                  0x0800f533   Thumb Code     0  startup_stm32f407xx.o(.text)
    ETH_WKUP_IRQHandler                      0x0800f533   Thumb Code     0  startup_stm32f407xx.o(.text)
    EXTI0_IRQHandler                         0x0800f533   Thumb Code     0  startup_stm32f407xx.o(.text)
    EXTI15_10_IRQHandler                     0x0800f533   Thumb Code     0  startup_stm32f407xx.o(.text)
    EXTI1_IRQHandler                         0x0800f533   Thumb Code     0  startup_stm32f407xx.o(.text)
    EXTI2_IRQHandler                         0x0800f533   Thumb Code     0  startup_stm32f407xx.o(.text)
    EXTI3_IRQHandler                         0x0800f533   Thumb Code     0  startup_stm32f407xx.o(.text)
    EXTI4_IRQHandler                         0x0800f533   Thumb Code     0  startup_stm32f407xx.o(.text)
    EXTI9_5_IRQHandler                       0x0800f533   Thumb Code     0  startup_stm32f407xx.o(.text)
    FLASH_IRQHandler                         0x0800f533   Thumb Code     0  startup_stm32f407xx.o(.text)
    FMC_IRQHandler                           0x0800f533   Thumb Code     0  startup_stm32f407xx.o(.text)
    FPU_IRQHandler                           0x0800f533   Thumb Code     0  startup_stm32f407xx.o(.text)
    HASH_RNG_IRQHandler                      0x0800f533   Thumb Code     0  startup_stm32f407xx.o(.text)
    I2C1_ER_IRQHandler                       0x0800f533   Thumb Code     0  startup_stm32f407xx.o(.text)
    I2C1_EV_IRQHandler                       0x0800f533   Thumb Code     0  startup_stm32f407xx.o(.text)
    I2C2_ER_IRQHandler                       0x0800f533   Thumb Code     0  startup_stm32f407xx.o(.text)
    I2C2_EV_IRQHandler                       0x0800f533   Thumb Code     0  startup_stm32f407xx.o(.text)
    I2C3_ER_IRQHandler                       0x0800f533   Thumb Code     0  startup_stm32f407xx.o(.text)
    I2C3_EV_IRQHandler                       0x0800f533   Thumb Code     0  startup_stm32f407xx.o(.text)
    OTG_FS_WKUP_IRQHandler                   0x0800f533   Thumb Code     0  startup_stm32f407xx.o(.text)
    OTG_HS_EP1_IN_IRQHandler                 0x0800f533   Thumb Code     0  startup_stm32f407xx.o(.text)
    OTG_HS_EP1_OUT_IRQHandler                0x0800f533   Thumb Code     0  startup_stm32f407xx.o(.text)
    OTG_HS_IRQHandler                        0x0800f533   Thumb Code     0  startup_stm32f407xx.o(.text)
    OTG_HS_WKUP_IRQHandler                   0x0800f533   Thumb Code     0  startup_stm32f407xx.o(.text)
    PVD_IRQHandler                           0x0800f533   Thumb Code     0  startup_stm32f407xx.o(.text)
    RCC_IRQHandler                           0x0800f533   Thumb Code     0  startup_stm32f407xx.o(.text)
    RTC_Alarm_IRQHandler                     0x0800f533   Thumb Code     0  startup_stm32f407xx.o(.text)
    RTC_WKUP_IRQHandler                      0x0800f533   Thumb Code     0  startup_stm32f407xx.o(.text)
    SDIO_IRQHandler                          0x0800f533   Thumb Code     0  startup_stm32f407xx.o(.text)
    SPI1_IRQHandler                          0x0800f533   Thumb Code     0  startup_stm32f407xx.o(.text)
    SPI2_IRQHandler                          0x0800f533   Thumb Code     0  startup_stm32f407xx.o(.text)
    SPI3_IRQHandler                          0x0800f533   Thumb Code     0  startup_stm32f407xx.o(.text)
    TAMP_STAMP_IRQHandler                    0x0800f533   Thumb Code     0  startup_stm32f407xx.o(.text)
    TIM1_BRK_TIM9_IRQHandler                 0x0800f533   Thumb Code     0  startup_stm32f407xx.o(.text)
    TIM1_CC_IRQHandler                       0x0800f533   Thumb Code     0  startup_stm32f407xx.o(.text)
    TIM1_TRG_COM_TIM11_IRQHandler            0x0800f533   Thumb Code     0  startup_stm32f407xx.o(.text)
    TIM1_UP_TIM10_IRQHandler                 0x0800f533   Thumb Code     0  startup_stm32f407xx.o(.text)
    TIM3_IRQHandler                          0x0800f533   Thumb Code     0  startup_stm32f407xx.o(.text)
    TIM4_IRQHandler                          0x0800f533   Thumb Code     0  startup_stm32f407xx.o(.text)
    TIM5_IRQHandler                          0x0800f533   Thumb Code     0  startup_stm32f407xx.o(.text)
    TIM6_DAC_IRQHandler                      0x0800f533   Thumb Code     0  startup_stm32f407xx.o(.text)
    TIM7_IRQHandler                          0x0800f533   Thumb Code     0  startup_stm32f407xx.o(.text)
    TIM8_BRK_TIM12_IRQHandler                0x0800f533   Thumb Code     0  startup_stm32f407xx.o(.text)
    TIM8_CC_IRQHandler                       0x0800f533   Thumb Code     0  startup_stm32f407xx.o(.text)
    TIM8_TRG_COM_TIM14_IRQHandler            0x0800f533   Thumb Code     0  startup_stm32f407xx.o(.text)
    TIM8_UP_TIM13_IRQHandler                 0x0800f533   Thumb Code     0  startup_stm32f407xx.o(.text)
    UART4_IRQHandler                         0x0800f533   Thumb Code     0  startup_stm32f407xx.o(.text)
    UART5_IRQHandler                         0x0800f533   Thumb Code     0  startup_stm32f407xx.o(.text)
    USART1_IRQHandler                        0x0800f533   Thumb Code     0  startup_stm32f407xx.o(.text)
    USART2_IRQHandler                        0x0800f533   Thumb Code     0  startup_stm32f407xx.o(.text)
    USART3_IRQHandler                        0x0800f533   Thumb Code     0  startup_stm32f407xx.o(.text)
    WWDG_IRQHandler                          0x0800f533   Thumb Code     0  startup_stm32f407xx.o(.text)
    SystemInit                               0x0800f53d   Thumb Code    82  system_stm32f4xx.o(.text)
    SystemCoreClockUpdate                    0x0800f58f   Thumb Code   174  system_stm32f4xx.o(.text)
    net_sys_init                             0x0800f65d   Thumb Code    26  net_config.o(.text)
    net_sys_run                              0x0800f677   Thumb Code    22  net_config.o(.text)
    igmp_is_member                           0x0800f68d   Thumb Code     4  net_config.o(.text)
    igmp_process                             0x0800f691   Thumb Code     2  net_config.o(.text)
    dhcp_disable                             0x0800f693   Thumb Code     4  net_config.o(.text)
    ppp_send_frame                           0x0800f697   Thumb Code     4  net_config.o(.text)
    slip_send_frame                          0x0800f69b   Thumb Code     4  net_config.o(.text)
    udp_process                              0x0800f69f   Thumb Code     2  net_config.o(.text)
    sntp_get_time                            0x0800f6a1   Thumb Code     4  net_config.o(.text)
    net_sys_error                            0x0800f6a5   Thumb Code   110  net_config.o(.text)
    USBD0_SignalDeviceEvent                  0x0800f775   Thumb Code     8  usbd_config_0.o(.text)
    USBD0_SignalEndpointEvent                0x0800f77d   Thumb Code    10  usbd_config_0.o(.text)
    USBD_Core_Endpoint0_SetupPacketReceived  0x0800f787   Thumb Code     4  usbd_config_0.o(.text)
    USBD_Core_Endpoint0_SetupPacketProcessed 0x0800f78b   Thumb Code     2  usbd_config_0.o(.text)
    USBD_Core_Endpoint0_OutDataReceived      0x0800f78d   Thumb Code     4  usbd_config_0.o(.text)
    USBD_Core_Endpoint0_InDataSent           0x0800f791   Thumb Code     4  usbd_config_0.o(.text)
    USBD_Endpoint0_Setup_ADC_ReqToIF         0x0800f795   Thumb Code     4  usbd_config_0.o(.text)
    USBD_Endpoint0_Out_ADC_ReqToIF           0x0800f799   Thumb Code     4  usbd_config_0.o(.text)
    USBD_Endpoint0_Setup_ADC_ReqToEP         0x0800f79d   Thumb Code     4  usbd_config_0.o(.text)
    USBD_Endpoint0_Out_ADC_ReqToEP           0x0800f7a1   Thumb Code     4  usbd_config_0.o(.text)
    USBD_CDC0_ACM_DataReceived               0x0800f7b7   Thumb Code     2  usbd_config_0.o(.text)
    USBD_CDC0_ACM_DataSent                   0x0800f7b9   Thumb Code     2  usbd_config_0.o(.text)
    USBD_Endpoint0_ReqGetDescriptor_HID      0x0800f7bb   Thumb Code     4  usbd_config_0.o(.text)
    USBD_Endpoint0_Setup_HID_ReqToIF         0x0800f7bf   Thumb Code     4  usbd_config_0.o(.text)
    USBD_Endpoint0_Out_HID_ReqToIF           0x0800f7c3   Thumb Code     4  usbd_config_0.o(.text)
    USBD_Endpoint0_Setup_MSC_ReqToIF         0x0800f7c7   Thumb Code     4  usbd_config_0.o(.text)
    USBD_Device0_Initialize                  0x0800f7cb   Thumb Code     2  usbd_config_0.o(.text)
    USBD_Device0_Uninitialize                0x0800f7cd   Thumb Code     2  usbd_config_0.o(.text)
    USBD_Device0_EventReset                  0x0800f7cf   Thumb Code     2  usbd_config_0.o(.text)
    USBD_Device0_Endpoint0_SetupPacketReceived 0x0800f7d1   Thumb Code     4  usbd_config_0.o(.text)
    USBD_Device0_Endpoint0_SetupPacketProcessed 0x0800f7d5   Thumb Code     2  usbd_config_0.o(.text)
    USBD_Device0_Endpoint0_OutDataReceived   0x0800f7d7   Thumb Code     4  usbd_config_0.o(.text)
    USBD_Device0_Endpoint0_InDataSent        0x0800f7db   Thumb Code     4  usbd_config_0.o(.text)
    USBD_ClassInitialize                     0x0800f7df   Thumb Code    52  usbd_config_0.o(.text)
    USBD_ClassUninitialize                   0x0800f813   Thumb Code    50  usbd_config_0.o(.text)
    USBD_EventPowerOn                        0x0800f845   Thumb Code     2  usbd_config_0.o(.text)
    USBD_EventPowerOff                       0x0800f847   Thumb Code     2  usbd_config_0.o(.text)
    USBD_EventHighSpeed                      0x0800f849   Thumb Code     2  usbd_config_0.o(.text)
    USBD_EventSuspend                        0x0800f84b   Thumb Code     2  usbd_config_0.o(.text)
    USBD_EventResume                         0x0800f84d   Thumb Code     2  usbd_config_0.o(.text)
    USBD_EventSetInterface                   0x0800f84f   Thumb Code     2  usbd_config_0.o(.text)
    USBD_EventEndpointSetFeatureStall        0x0800f851   Thumb Code     2  usbd_config_0.o(.text)
    USBD_EventEnableRemoteWakeup             0x0800f853   Thumb Code     2  usbd_config_0.o(.text)
    USBD_EventDisableRemoteWakeup            0x0800f855   Thumb Code     2  usbd_config_0.o(.text)
    USBD_EventReset                          0x0800f857   Thumb Code    48  usbd_config_0.o(.text)
    USBD_EventSetConfiguration               0x0800f887   Thumb Code     2  usbd_config_0.o(.text)
    USBD_EventEndpointClearFeatureStall      0x0800f889   Thumb Code     2  usbd_config_0.o(.text)
    USBD_EventEndpointStart                  0x0800f88b   Thumb Code    72  usbd_config_0.o(.text)
    USBD_EventEndpointStop                   0x0800f8d3   Thumb Code     2  usbd_config_0.o(.text)
    __aeabi_uldivmod                         0x0800f8d9   Thumb Code    98  uldiv.o(.text)
    __aeabi_memcpy                           0x0800f93b   Thumb Code    36  memcpya.o(.text)
    __aeabi_memcpy4                          0x0800f93b   Thumb Code     0  memcpya.o(.text)
    __aeabi_memcpy8                          0x0800f93b   Thumb Code     0  memcpya.o(.text)
    __aeabi_memset                           0x0800f95f   Thumb Code    14  memseta.o(.text)
    __aeabi_memset4                          0x0800f95f   Thumb Code     0  memseta.o(.text)
    __aeabi_memset8                          0x0800f95f   Thumb Code     0  memseta.o(.text)
    __aeabi_memclr                           0x0800f96d   Thumb Code     4  memseta.o(.text)
    __aeabi_memclr4                          0x0800f96d   Thumb Code     0  memseta.o(.text)
    __aeabi_memclr8                          0x0800f96d   Thumb Code     0  memseta.o(.text)
    _memset$wrapper                          0x0800f971   Thumb Code    18  memseta.o(.text)
    strlen                                   0x0800f983   Thumb Code    14  strlen.o(.text)
    __aeabi_llsl                             0x0800f991   Thumb Code    30  llshl.o(.text)
    _ll_shift_l                              0x0800f991   Thumb Code     0  llshl.o(.text)
    __aeabi_llsr                             0x0800f9af   Thumb Code    32  llushr.o(.text)
    _ll_ushift_r                             0x0800f9af   Thumb Code     0  llushr.o(.text)
    __scatterload                            0x0800f9d1   Thumb Code    28  init.o(.text)
    __scatterload_rt2                        0x0800f9d1   Thumb Code     0  init.o(.text)
    __decompress                             0x0800f9f5   Thumb Code     0  __dczerorl2.o(.text)
    __decompress1                            0x0800f9f5   Thumb Code    86  __dczerorl2.o(.text)
    SVC_Count                                0x0800fa4c   Data           4  svc_table.o(SVC_TABLE)
    SVC_Table                                0x0800fa50   Data           0  svc_table.o(SVC_TABLE)
    USBD0_CoreThread                         0x0800fa51   Thumb Code     6  usbd_core.o(i.USBD0_CoreThread)
    USBD_CDC0_Bulk_Thread                    0x0800fa57   Thumb Code     6  usbd_cdc.o(i.USBD_CDC0_Bulk_Thread)
    USBD_CDC0_Int_Thread                     0x0800fa5d   Thumb Code     6  usbd_cdc.o(i.USBD_CDC0_Int_Thread)
    USBD_CDC_ACM_CoreClearCommFeature        0x0800fa63   Thumb Code     4  usbd_cdc.o(i.USBD_CDC_ACM_CoreClearCommFeature)
    USBD_CDC_ACM_CoreGetCommFeature          0x0800fa67   Thumb Code     4  usbd_cdc.o(i.USBD_CDC_ACM_CoreGetCommFeature)
    USBD_CDC_ACM_CoreGetEncapsulatedResponse 0x0800fa6b   Thumb Code     4  usbd_cdc.o(i.USBD_CDC_ACM_CoreGetEncapsulatedResponse)
    USBD_CDC_ACM_CoreGetLineCoding           0x0800fa71   Thumb Code   102  usbd_cdc.o(i.USBD_CDC_ACM_CoreGetLineCoding)
    USBD_CDC_ACM_CoreReset                   0x0800fae5   Thumb Code   116  usbd_cdc.o(i.USBD_CDC_ACM_CoreReset)
    USBD_CDC_ACM_CoreSendBreak               0x0800fb65   Thumb Code     4  usbd_cdc.o(i.USBD_CDC_ACM_CoreSendBreak)
    USBD_CDC_ACM_CoreSendEncapsulatedCommand 0x0800fb69   Thumb Code     4  usbd_cdc.o(i.USBD_CDC_ACM_CoreSendEncapsulatedCommand)
    USBD_CDC_ACM_CoreSetCommFeature          0x0800fb6d   Thumb Code     4  usbd_cdc.o(i.USBD_CDC_ACM_CoreSetCommFeature)
    USBD_CDC_ACM_CoreSetControlLineState     0x0800fb71   Thumb Code    46  usbd_cdc.o(i.USBD_CDC_ACM_CoreSetControlLineState)
    USBD_CDC_ACM_CoreSetLineCoding           0x0800fba9   Thumb Code    88  usbd_cdc.o(i.USBD_CDC_ACM_CoreSetLineCoding)
    USBD_CDC_ACM_WriteData                   0x0800fc0d   Thumb Code   160  usbd_cdc.o(i.USBD_CDC_ACM_WriteData)
    USBD_CDC_Bulk_Thread                     0x0800fcb5   Thumb Code    42  usbd_cdc.o(i.USBD_CDC_Bulk_Thread)
    USBD_CDC_CheckInstance                   0x0800fce1   Thumb Code    46  usbd_cdc.o(i.USBD_CDC_CheckInstance)
    USBD_CDC_ClassInitialize                 0x0800fd1d   Thumb Code    82  usbd_cdc.o(i.USBD_CDC_ClassInitialize)
    USBD_CDC_ClassUninitialize               0x0800fd85   Thumb Code    68  usbd_cdc.o(i.USBD_CDC_ClassUninitialize)
    USBD_CDC_EventEndpointStart              0x0800fdd5   Thumb Code    78  usbd_cdc.o(i.USBD_CDC_EventEndpointStart)
    USBD_CDC_EventReset                      0x0800ffdd   Thumb Code    52  usbd_cdc.o(i.USBD_CDC_EventReset)
    USBD_CDC_Int_Thread                      0x08010015   Thumb Code    42  usbd_cdc.o(i.USBD_CDC_Int_Thread)
    USBD_CheckDevice                         0x08010045   Thumb Code    36  usbd_core.o(i.USBD_CheckDevice)
    USBD_Core                                0x08010071   Thumb Code    98  usbd_core.o(i.USBD_Core)
    USBD_CoreThread                          0x080100d5   Thumb Code   132  usbd_core.o(i.USBD_CoreThread)
    USBD_DataInStage                         0x08010161   Thumb Code    78  usbd_core.o(i.USBD_DataInStage)
    USBD_DataOutStage                        0x080101b5   Thumb Code    40  usbd_core.o(i.USBD_DataOutStage)
    USBD_DriverDeviceSetAddress              0x080101e1   Thumb Code    60  usbd_core.o(i.USBD_DriverDeviceSetAddress)
    USBD_DriverEndpointConfigure             0x08010225   Thumb Code   116  usbd_core.o(i.USBD_DriverEndpointConfigure)
    USBD_DriverEndpointStall                 0x080102a1   Thumb Code   112  usbd_core.o(i.USBD_DriverEndpointStall)
    USBD_DriverEndpointTransfer              0x08010319   Thumb Code   148  usbd_core.o(i.USBD_DriverEndpointTransfer)
    USBD_DriverEndpointTransferAbort         0x080103b5   Thumb Code   110  usbd_core.o(i.USBD_DriverEndpointTransferAbort)
    USBD_DriverEndpointTransferGetResult     0x0801042d   Thumb Code    50  usbd_core.o(i.USBD_DriverEndpointTransferGetResult)
    USBD_DriverEndpointUnconfigure           0x08010469   Thumb Code   108  usbd_core.o(i.USBD_DriverEndpointUnconfigure)
    USBD_DriverReadSetupPacket               0x080104dd   Thumb Code    60  usbd_core.o(i.USBD_DriverReadSetupPacket)
    USBD_Endpoint0                           0x08010521   Thumb Code   590  usbd_core.o(i.USBD_Endpoint0)
    USBD_Endpoint0_Out_CDC_ReqToIF           0x08010775   Thumb Code   122  usbd_core_cdc.o(i.USBD_Endpoint0_Out_CDC_ReqToIF)
    USBD_Endpoint0_Setup_CDC_ReqToIF         0x080107fd   Thumb Code   216  usbd_core_cdc.o(i.USBD_Endpoint0_Setup_CDC_ReqToIF)
    USBD_EndpointStall                       0x080108e1   Thumb Code    90  usbd_core.o(i.USBD_EndpointStall)
    USBD_ReqGetConfiguration                 0x08010941   Thumb Code    30  usbd_core.o(i.USBD_ReqGetConfiguration)
    USBD_ReqGetDescriptor                    0x08010965   Thumb Code   308  usbd_core.o(i.USBD_ReqGetDescriptor)
    USBD_ReqGetInterface                     0x08010aa1   Thumb Code    48  usbd_core.o(i.USBD_ReqGetInterface)
    USBD_ReqGetStatus                        0x08010ad5   Thumb Code   118  usbd_core.o(i.USBD_ReqGetStatus)
    USBD_ReqSetAddress                       0x08010b51   Thumb Code    36  usbd_core.o(i.USBD_ReqSetAddress)
    USBD_ReqSetClrFeature                    0x08010b79   Thumb Code   230  usbd_core.o(i.USBD_ReqSetClrFeature)
    USBD_ReqSetConfiguration                 0x08010c65   Thumb Code   544  usbd_core.o(i.USBD_ReqSetConfiguration)
    USBD_ReqSetInterface                     0x08010e8d   Thumb Code   380  usbd_core.o(i.USBD_ReqSetInterface)
    USBD_ResetCore                           0x08011011   Thumb Code    96  usbd_core.o(i.USBD_ResetCore)
    USBD_SetupStage                          0x08011079   Thumb Code    18  usbd_core.o(i.USBD_SetupStage)
    USBD_SignalDeviceEvent                   0x08011091   Thumb Code    10  usbd_core.o(i.USBD_SignalDeviceEvent)
    USBD_SignalEndpointEvent                 0x080110a1   Thumb Code    64  usbd_core.o(i.USBD_SignalEndpointEvent)
    USBD_StatusInStage                       0x080110ed   Thumb Code    12  usbd_core.o(i.USBD_StatusInStage)
    USBD_StatusInStageDone                   0x080110f9   Thumb Code    18  usbd_core.o(i.USBD_StatusInStageDone)
    USBD_StatusOutStage                      0x0801110b   Thumb Code    12  usbd_core.o(i.USBD_StatusOutStage)
    USBD_StatusOutStageDone                  0x08011119   Thumb Code    48  usbd_core.o(i.USBD_StatusOutStageDone)
    USBD_SwitchToHighSpeedCore               0x0801114d   Thumb Code    20  usbd_core.o(i.USBD_SwitchToHighSpeedCore)
    __scatterload_copy                       0x08011165   Thumb Code    14  handlers.o(i.__scatterload_copy)
    __scatterload_null                       0x08011173   Thumb Code     2  handlers.o(i.__scatterload_null)
    __scatterload_zeroinit                   0x08011175   Thumb Code    14  handlers.o(i.__scatterload_zeroinit)
    _init_box                                0x08011183   Thumb Code    70  rt_membox.o(i._init_box)
    arp_cache_add                            0x080111c9   Thumb Code   156  net_arp.o(i.arp_cache_add)
    arp_cache_early                          0x080112f5   Thumb Code   128  net_arp.o(i.arp_cache_early)
    arp_cache_find                           0x0801137d   Thumb Code   148  net_arp.o(i.arp_cache_find)
    arp_cache_update                         0x0801141d   Thumb Code   212  net_arp.o(i.arp_cache_update)
    arp_init                                 0x08011501   Thumb Code    38  net_arp.o(i.arp_init)
    arp_notify                               0x0801156d   Thumb Code    26  net_arp.o(i.arp_notify)
    arp_process                              0x08011609   Thumb Code   276  net_arp.o(i.arp_process)
    chksum16                                 0x08011879   Thumb Code    50  net_common.o(i.chksum16)
    dbg_init                                 0x080118ad   Thumb Code    34  hal_cm.o(i.dbg_init)
    dbg_task_notify                          0x080118dd   Thumb Code    32  hal_cm.o(i.dbg_task_notify)
    dbg_task_switch                          0x080118fd   Thumb Code    16  hal_cm.o(i.dbg_task_switch)
    eth_chk_addr                             0x080119cd   Thumb Code    28  net_eth.o(i.eth_chk_addr)
    eth_init_link                            0x08011a61   Thumb Code   222  net_eth.o(i.eth_init_link)
    eth_link_notify                          0x08011b59   Thumb Code     2  net_eth.o(i.eth_link_notify)
    eth_run_link                             0x08011b71   Thumb Code   210  net_eth.o(i.eth_run_link)
    eth_send_frame                           0x08011c55   Thumb Code   152  net_eth.o(i.eth_send_frame)
    eth_thread                               0x08011cfd   Thumb Code    14  net_eth.o(i.eth_thread)
    get_rnd32                                0x08011d29   Thumb Code    18  net_sys.o(i.get_rnd32)
    icmp_process                             0x08011d45   Thumb Code   210  net_icmp.o(i.icmp_process)
    icmp_service_init                        0x08011ea1   Thumb Code    10  net_icmp.o(i.icmp_service_init)
    icmp_service_run                         0x08011eb1   Thumb Code    58  net_icmp.o(i.icmp_service_run)
    ip4_checksum                             0x08011ef9   Thumb Code    76  net_ip.o(i.ip4_checksum)
    ip_chk_frame                             0x08011f45   Thumb Code   196  net_ip.o(i.ip_chk_frame)
    ip_get_locadr                            0x08012021   Thumb Code    54  net_ip.o(i.ip_get_locadr)
    ip_localhost_init                        0x080120f1   Thumb Code    20  net_ip.o(i.ip_localhost_init)
    ip_localhost_run                         0x0801210d   Thumb Code    86  net_ip.o(i.ip_localhost_run)
    ip_send_frame                            0x0801216d   Thumb Code   312  net_ip.o(i.ip_send_frame)
    ip_tx_offload                            0x080122ad   Thumb Code    40  net_ip.o(i.ip_tx_offload)
    is_subnet                                0x080122dd   Thumb Code    26  net_addr4.o(i.is_subnet)
    is_subnet_bcast                          0x080122f9   Thumb Code    34  net_ip.o(i.is_subnet_bcast)
    isrMessageGet                            0x08012321   Thumb Code    42  rt_cmsis.o(i.isrMessageGet)
    isrMessagePut                            0x0801234b   Thumb Code    44  rt_cmsis.o(i.isrMessagePut)
    isrSemaphoreRelease                      0x08012377   Thumb Code    40  rt_cmsis.o(i.isrSemaphoreRelease)
    isrSignalSet                             0x0801239f   Thumb Code    36  rt_cmsis.o(i.isrSignalSet)
    isr_evt_set                              0x080123c5   Thumb Code    34  rt_event.o(i.isr_evt_set)
    isr_mbx_receive                          0x080123ed   Thumb Code    82  rt_mailbox.o(i.isr_mbx_receive)
    isr_mbx_send                             0x0801243f   Thumb Code    14  rt_mailbox.o(i.isr_mbx_send)
    isr_sem_send                             0x0801244d   Thumb Code    16  rt_semaphore.o(i.isr_sem_send)
    mem_alloc                                0x0801245d   Thumb Code   130  net_mem.o(i.mem_alloc)
    mem_avail                                0x080124e9   Thumb Code    22  net_mem.o(i.mem_avail)
    mem_crc32                                0x08012505   Thumb Code    32  net_common.o(i.mem_crc32)
    mem_free                                 0x08012525   Thumb Code   100  net_mem.o(i.mem_free)
    mem_init                                 0x08012591   Thumb Code    86  net_mem.o(i.mem_init)
    mem_resize                               0x08012605   Thumb Code    50  net_mem.o(i.mem_resize)
    net_initialize                           0x08012649   Thumb Code    58  net_sys.o(i.net_initialize)
    net_main                                 0x08012695   Thumb Code    86  net_sys.o(i.net_main)
    osDelay                                  0x0801270d   Thumb Code    18  rt_cmsis.o(i.osDelay)
    osKernelInitialize                       0x08012725   Thumb Code    30  rt_cmsis.o(i.osKernelInitialize)
    osKernelStart                            0x08012749   Thumb Code    98  rt_cmsis.o(i.osKernelStart)
    osMessageGet                             0x080127b5   Thumb Code    18  rt_cmsis.o(i.osMessageGet)
    osMutexCreate                            0x080127cd   Thumb Code    38  rt_cmsis.o(i.osMutexCreate)
    osMutexRelease                           0x080127fd   Thumb Code    18  rt_cmsis.o(i.osMutexRelease)
    osMutexWait                              0x08012815   Thumb Code    18  rt_cmsis.o(i.osMutexWait)
    osSemaphoreRelease                       0x0801282d   Thumb Code    18  rt_cmsis.o(i.osSemaphoreRelease)
    osSemaphoreWait                          0x08012845   Thumb Code    20  rt_cmsis.o(i.osSemaphoreWait)
    osSignalSet                              0x0801285d   Thumb Code    18  rt_cmsis.o(i.osSignalSet)
    osSignalWait                             0x08012875   Thumb Code    18  rt_cmsis.o(i.osSignalWait)
    osThreadCreate                           0x0801288d   Thumb Code    38  rt_cmsis.o(i.osThreadCreate)
    osThreadExit                             0x080128bd   Thumb Code    14  rt_cmsis.o(i.osThreadExit)
    osThreadTerminate                        0x080128d5   Thumb Code    18  rt_cmsis.o(i.osThreadTerminate)
    osTimerCall                              0x080128ed   Thumb Code     8  rt_cmsis.o(i.osTimerCall)
    osTimerCreate                            0x080128f9   Thumb Code    44  rt_cmsis.o(i.osTimerCreate)
    osTimerStart                             0x0801292d   Thumb Code    18  rt_cmsis.o(i.osTimerStart)
    osTimerThread                            0x08012945   Thumb Code    38  rt_cmsis.o(i.osTimerThread)
    rt_alloc_box                             0x08012971   Thumb Code    26  rt_membox.o(i.rt_alloc_box)
    rt_alloc_mem                             0x0801298b   Thumb Code    62  rt_memory.o(i.rt_alloc_mem)
    rt_block                                 0x080129c9   Thumb Code    48  rt_task.o(i.rt_block)
    rt_chk_robin                             0x08012a01   Thumb Code    60  rt_robin.o(i.rt_chk_robin)
    rt_dec_dly                               0x08012a49   Thumb Code   102  rt_list.o(i.rt_dec_dly)
    rt_dispatch                              0x08012ab9   Thumb Code    60  rt_task.o(i.rt_dispatch)
    rt_dly_wait                              0x08012afd   Thumb Code     6  rt_time.o(i.rt_dly_wait)
    rt_evt_psh                               0x08012b05   Thumb Code    76  rt_event.o(i.rt_evt_psh)
    rt_evt_set                               0x08012b55   Thumb Code    88  rt_event.o(i.rt_evt_set)
    rt_evt_wait                              0x08012bb1   Thumb Code    56  rt_event.o(i.rt_evt_wait)
    rt_free_box                              0x08012bed   Thumb Code    32  rt_membox.o(i.rt_free_box)
    rt_free_mem                              0x08012c0d   Thumb Code    40  rt_memory.o(i.rt_free_mem)
    rt_get_first                             0x08012c35   Thumb Code    40  rt_list.o(i.rt_get_first)
    rt_init_mem                              0x08012cad   Thumb Code    26  rt_memory.o(i.rt_init_mem)
    rt_init_robin                            0x08012cc9   Thumb Code    14  rt_robin.o(i.rt_init_robin)
    rt_init_stack                            0x08012ce1   Thumb Code   118  hal_cm.o(i.rt_init_stack)
    rt_mbx_check                             0x08012d61   Thumb Code     8  rt_mailbox.o(i.rt_mbx_check)
    rt_mbx_init                              0x08012d69   Thumb Code    26  rt_mailbox.o(i.rt_mbx_init)
    rt_mbx_psh                               0x08012d85   Thumb Code   236  rt_mailbox.o(i.rt_mbx_psh)
    rt_mbx_wait                              0x08012e75   Thumb Code   174  rt_mailbox.o(i.rt_mbx_wait)
    rt_mut_init                              0x08012f65   Thumb Code    16  rt_mutex.o(i.rt_mut_init)
    rt_mut_release                           0x08012f75   Thumb Code   208  rt_mutex.o(i.rt_mut_release)
    rt_mut_wait                              0x0801304d   Thumb Code   100  rt_mutex.o(i.rt_mut_wait)
    rt_pop_req                               0x080130b5   Thumb Code   112  rt_system.o(i.rt_pop_req)
    rt_psh_req                               0x08013131   Thumb Code    22  rt_system.o(i.rt_psh_req)
    rt_psq_enq                               0x08013151   Thumb Code    88  rt_list.o(i.rt_psq_enq)
    rt_put_dly                               0x080131ad   Thumb Code    68  rt_list.o(i.rt_put_dly)
    rt_put_prio                              0x080131f5   Thumb Code    54  rt_list.o(i.rt_put_prio)
    rt_put_rdy_first                         0x0801322d   Thumb Code    14  rt_list.o(i.rt_put_rdy_first)
    rt_resort_prio                           0x08013241   Thumb Code    46  rt_list.o(i.rt_resort_prio)
    rt_ret_val                               0x08013285   Thumb Code    12  hal_cm.o(i.rt_ret_val)
    rt_ret_val2                              0x08013291   Thumb Code    16  hal_cm.o(i.rt_ret_val2)
    rt_rmv_dly                               0x080132a1   Thumb Code    40  rt_list.o(i.rt_rmv_dly)
    rt_rmv_list                              0x080132c9   Thumb Code    44  rt_list.o(i.rt_rmv_list)
    rt_sem_psh                               0x080132f9   Thumb Code    48  rt_semaphore.o(i.rt_sem_psh)
    rt_sem_send                              0x0801332d   Thumb Code    42  rt_semaphore.o(i.rt_sem_send)
    rt_sem_wait                              0x08013359   Thumb Code    58  rt_semaphore.o(i.rt_sem_wait)
    rt_stk_check                             0x08013399   Thumb Code    28  rt_system.o(i.rt_stk_check)
    rt_switch_req                            0x080133bd   Thumb Code    30  rt_task.o(i.rt_switch_req)
    rt_sys_init                              0x080133e5   Thumb Code   138  rt_task.o(i.rt_sys_init)
    rt_sys_start                             0x080134b1   Thumb Code   110  rt_task.o(i.rt_sys_start)
    rt_systick                               0x08013529   Thumb Code    50  rt_system.o(i.rt_systick)
    rt_tsk_create                            0x080135ed   Thumb Code   112  rt_task.o(i.rt_tsk_create)
    rt_tsk_delete                            0x0801366d   Thumb Code   342  rt_task.o(i.rt_tsk_delete)
    rt_tsk_prio                              0x080137e1   Thumb Code   108  rt_task.o(i.rt_tsk_prio)
    rt_tsk_self                              0x0801385d   Thumb Code    12  rt_task.o(i.rt_tsk_self)
    svcDelay                                 0x0801386d   Thumb Code    20  rt_cmsis.o(i.svcDelay)
    svcKernelInitialize                      0x08013881   Thumb Code    80  rt_cmsis.o(i.svcKernelInitialize)
    svcKernelStart                           0x080138f1   Thumb Code    62  rt_cmsis.o(i.svcKernelStart)
    svcMessageCreate                         0x08013939   Thumb Code    36  rt_cmsis.o(i.svcMessageCreate)
    svcMessageGet                            0x0801395d   Thumb Code    58  rt_cmsis.o(i.svcMessageGet)
    svcMutexCreate                           0x08013997   Thumb Code    28  rt_cmsis.o(i.svcMutexCreate)
    svcMutexRelease                          0x080139b3   Thumb Code    34  rt_cmsis.o(i.svcMutexRelease)
    svcMutexWait                             0x080139d5   Thumb Code    54  rt_cmsis.o(i.svcMutexWait)
    svcSemaphoreRelease                      0x08013a0b   Thumb Code    40  rt_cmsis.o(i.svcSemaphoreRelease)
    svcSemaphoreWait                         0x08013a33   Thumb Code    50  rt_cmsis.o(i.svcSemaphoreWait)
    svcSignalSet                             0x08013a65   Thumb Code    36  rt_cmsis.o(i.svcSignalSet)
    svcSignalWait                            0x08013a89   Thumb Code    80  rt_cmsis.o(i.svcSignalWait)
    svcThreadCreate                          0x08013add   Thumb Code   100  rt_cmsis.o(i.svcThreadCreate)
    svcThreadGetId                           0x08013b4d   Thumb Code    22  rt_cmsis.o(i.svcThreadGetId)
    svcThreadTerminate                       0x08013b69   Thumb Code    50  rt_cmsis.o(i.svcThreadTerminate)
    svcTimerCall                             0x08013ba1   Thumb Code    24  rt_cmsis.o(i.svcTimerCall)
    svcTimerCreate                           0x08013bb9   Thumb Code    52  rt_cmsis.o(i.svcTimerCreate)
    svcTimerStart                            0x08013bf1   Thumb Code    96  rt_cmsis.o(i.svcTimerStart)
    sysTimerTick                             0x08013c55   Thumb Code    84  rt_cmsis.o(i.sysTimerTick)
    tcp_check_send                           0x08013cb1   Thumb Code    54  net_tcp.o(i.tcp_check_send)
    tcp_get_buf                              0x08013ced   Thumb Code    30  net_tcp.o(i.tcp_get_buf)
    tcp_get_socket                           0x08013d0d   Thumb Code    76  net_tcp.o(i.tcp_get_socket)
    tcp_listen                               0x08013d5d   Thumb Code   102  net_tcp.o(i.tcp_listen)
    tcp_max_data_size                        0x08013e45   Thumb Code    30  net_tcp.o(i.tcp_max_data_size)
    tcp_process                              0x08013fe1   Thumb Code  1178  net_tcp.o(i.tcp_process)
    tcp_send                                 0x08014545   Thumb Code   214  net_tcp.o(i.tcp_send)
    tcp_socket_init                          0x0801475d   Thumb Code    16  net_tcp.o(i.tcp_socket_init)
    tcp_socket_poll                          0x08014771   Thumb Code   634  net_tcp.o(i.tcp_socket_poll)
    os_thread_def_Thread                     0x08014b04   Data          16  tcpthread.o(.constdata)
    os_maxtaskrun                            0x08014b14   Data           2  rtx_conf_cm.o(.constdata)
    os_stackinfo                             0x08014b18   Data           4  rtx_conf_cm.o(.constdata)
    os_rrobin                                0x08014b1c   Data           4  rtx_conf_cm.o(.constdata)
    os_tickfreq                              0x08014b20   Data           4  rtx_conf_cm.o(.constdata)
    os_tickus_i                              0x08014b24   Data           2  rtx_conf_cm.o(.constdata)
    os_tickus_f                              0x08014b26   Data           2  rtx_conf_cm.o(.constdata)
    os_trv                                   0x08014b28   Data           4  rtx_conf_cm.o(.constdata)
    os_flags                                 0x08014b2c   Data           1  rtx_conf_cm.o(.constdata)
    CMSIS_RTOS_API_Version                   0x08014b30   Data           4  rtx_conf_cm.o(.constdata)
    CMSIS_RTOS_RTX_Version                   0x08014b34   Data           4  rtx_conf_cm.o(.constdata)
    os_clockrate                             0x08014b38   Data           4  rtx_conf_cm.o(.constdata)
    os_timernum                              0x08014b3c   Data           4  rtx_conf_cm.o(.constdata)
    mp_tcb_size                              0x08014b40   Data           2  rtx_conf_cm.o(.constdata)
    mp_stk_size                              0x08014b44   Data           4  rtx_conf_cm.o(.constdata)
    os_stack_sz                              0x08014b48   Data           4  rtx_conf_cm.o(.constdata)
    os_fifo_size                             0x08014b4c   Data           1  rtx_conf_cm.o(.constdata)
    os_thread_def_osTimerThread              0x08014b50   Data          16  rtx_conf_cm.o(.constdata)
    os_messageQ_def_osTimerMessageQ          0x08014b60   Data           8  rtx_conf_cm.o(.constdata)
    mp_tmr_size                              0x08014b68   Data           2  rtx_conf_cm.o(.constdata)
    Driver_ETH_PHY0                          0x08014b70   Data          32  phy_lan8720.o(.constdata)
    Driver_ETH_MAC0                          0x08014be0   Data          68  emac_stm32f4xx.o(.constdata)
    Driver_USART6                            0x08014c6c   Data          56  usart_stm32f4xx.o(.constdata)
    Driver_USBD0                             0x08014cac   Data          72  usbd_fs_stm32f4xx.o(.constdata)
    APBAHBPrescTable                         0x08014cf4   Data          16  stm32f4xx_hal_rcc.o(.constdata)
    nlocalm                                  0x08014d04   Data          60  net_config.o(.constdata)
    sys_config                               0x08014d40   Data          16  net_config.o(.constdata)
    eth0_config                              0x08014d50   Data          40  net_config.o(.constdata)
    tcp_config                               0x08014d78   Data          24  net_config.o(.constdata)
    os_thread_def_USBD0_CoreThread           0x08014d90   Data          16  usbd_config_0.o(.constdata)
    usbd0_dev                                0x08014da0   Data          24  usbd_config_0.o(.constdata)
    os_semaphore_def_usbd0_driver_semaphore_def 0x08014db8   Data           4  usbd_config_0.o(.constdata)
    usbd_driver_semaphore_def_ptr            0x08014dbc   Data           4  usbd_config_0.o(.constdata)
    usbd_dev_num                             0x08014dc0   Data           1  usbd_config_0.o(.constdata)
    usbd_dev_ptr                             0x08014dc4   Data           4  usbd_config_0.o(.constdata)
    os_thread_def_USBD_CDC0_Int_Thread       0x08014dc8   Data          16  usbd_config_0.o(.constdata)
    os_thread_def_USBD_CDC0_Bulk_Thread      0x08014dd8   Data          16  usbd_config_0.o(.constdata)
    usbd_cdc_int_thread_def_ptr              0x08014de8   Data           4  usbd_config_0.o(.constdata)
    usbd_cdc_bulk_thread_def_ptr             0x08014dec   Data           4  usbd_config_0.o(.constdata)
    usbd_cdc_num                             0x08014df0   Data           1  usbd_config_0.o(.constdata)
    usbd_cdc                                 0x08014df4   Data          36  usbd_config_0.o(.constdata)
    usbd_cdc_ptr                             0x08014e18   Data           4  usbd_config_0.o(.constdata)
    usbd_ep_max_num                          0x08014e1c   Data           1  usbd_config_0.o(.constdata)
    usbd_core_thread_def_ptr                 0x08014e20   Data           4  usbd_config_0.o(.constdata)
    usbd_cb_device_event_ptr                 0x08014e24   Data           4  usbd_config_0.o(.constdata)
    usbd_cb_endpoint_event_ptr               0x08014e28   Data           4  usbd_config_0.o(.constdata)
    USBD_CDC_ACM_Initialize                  0x08014e2c   Data           4  usbd_config_0.o(.constdata)
    USBD_CDC_ACM_Uninitialize                0x08014e30   Data           4  usbd_config_0.o(.constdata)
    USBD_CDC_ACM_Reset                       0x08014e34   Data           4  usbd_config_0.o(.constdata)
    USBD_CDC_ACM_SetLineCoding               0x08014e38   Data           4  usbd_config_0.o(.constdata)
    USBD_CDC_ACM_GetLineCoding               0x08014e3c   Data           4  usbd_config_0.o(.constdata)
    USBD_CDC_ACM_SetControlLineState         0x08014e40   Data           4  usbd_config_0.o(.constdata)
    USBD_CDC_ACM_DataReceived                0x08014e44   Data           4  usbd_config_0.o(.constdata)
    USBD_CDC_ACM_DataSent                    0x08014e48   Data           4  usbd_config_0.o(.constdata)
    USBD_Device_Initialize                   0x08014e4c   Data           4  usbd_config_0.o(.constdata)
    USBD_Device_Uninitialize                 0x08014e50   Data           4  usbd_config_0.o(.constdata)
    USBD_Device_EventReset                   0x08014e54   Data           4  usbd_config_0.o(.constdata)
    USBD_Device_Endpoint0_SetupPacketReceived 0x08014e58   Data           4  usbd_config_0.o(.constdata)
    USBD_Device_Endpoint0_SetupPacketProcessed 0x08014e5c   Data           4  usbd_config_0.o(.constdata)
    USBD_Device_Endpoint0_OutDataReceived    0x08014e60   Data           4  usbd_config_0.o(.constdata)
    USBD_Device_Endpoint0_InDataSent         0x08014e64   Data           4  usbd_config_0.o(.constdata)
    usbd0_ep0_descriptor                     0x08014e68   Data           7  usbd_config_0.o(.constdata)
    usbd0_device_descriptor                  0x08014e6f   Data          18  usbd_config_0.o(.constdata)
    usbd0_config_descriptor_fs               0x08014e81   Data          76  usbd_config_0.o(.constdata)
    usbd0_device_qualifier_fs                0x08014ecd   Data           1  usbd_config_0.o(.constdata)
    usbd0_device_qualifier_hs                0x08014ece   Data           1  usbd_config_0.o(.constdata)
    usbd0_config_descriptor_hs               0x08014ecf   Data           1  usbd_config_0.o(.constdata)
    usbd0_other_speed_config_descriptor_fs   0x08014ed0   Data           1  usbd_config_0.o(.constdata)
    usbd0_other_speed_config_descriptor_hs   0x08014ed1   Data           1  usbd_config_0.o(.constdata)
    usbd0_string_descriptor                  0x08014ed2   Data         146  usbd_config_0.o(.constdata)
    eth_bcast                                0x08014f64   Data           6  net_eth.o(.constdata)
    os_thread_def_eth_thread                 0x08014f70   Data          16  net_eth.o(.constdata)
    ip_bcast                                 0x08014f80   Data           4  net_ip.o(.constdata)
    os_timer_def_net_tick                    0x08014f88   Data           8  net_sys.o(.constdata)
    os_mutex_def_mem_lock                    0x08014f90   Data           4  net_mem.o(.constdata)
    net_addr_null                            0x08014f94   Data           8  net_addr4.o(.constdata)
    Region$$Table$$Base                      0x0801500c   Number         0  anon$$obj.o(Region$$Table)
    Region$$Table$$Limit                     0x0801502c   Number         0  anon$$obj.o(Region$$Table)
    startLerp                                0x20000000   Data           1  dacmodule.o(.data)
    bUpdate                                  0x20000001   Data           1  dacmodule.o(.data)
    bCNCinit                                 0x20000002   Data           1  dacmodule.o(.data)
    x0                                       0x20000004   Data           2  dacmodule.o(.data)
    y0                                       0x20000006   Data           2  dacmodule.o(.data)
    dx0                                      0x20000008   Data           2  dacmodule.o(.data)
    dy0                                      0x2000000a   Data           2  dacmodule.o(.data)
    period0                                  0x2000000c   Data           2  dacmodule.o(.data)
    x1                                       0x2000000e   Data           2  dacmodule.o(.data)
    y1                                       0x20000010   Data           2  dacmodule.o(.data)
    dx1                                      0x20000012   Data           2  dacmodule.o(.data)
    dy1                                      0x20000014   Data           2  dacmodule.o(.data)
    period1                                  0x20000016   Data           2  dacmodule.o(.data)
    cnt                                      0x20000018   Data           2  dacmodule.o(.data)
    tim_state                                0x2000001a   Data           1  dacmodule.o(.data)
    updateTimState                           0x2000001b   Data           1  dacmodule.o(.data)
    tcp_socket                               0x2000001c   Data           4  tcpthread.o(.data)
    tcp_socket_cmd                           0x20000020   Data           4  tcpthread.o(.data)
    startFirst                               0x20000024   Data           1  tcpthread.o(.data)
    pck_head                                 0x20000025   Data           1  tcpthread.o(.data)
    pck_received                             0x20000026   Data           1  tcpthread.o(.data)
    pck_len                                  0x20000028   Data           2  tcpthread.o(.data)
    pck_size                                 0x2000002a   Data           2  tcpthread.o(.data)
    pck_rest_size                            0x2000002c   Data           2  tcpthread.o(.data)
    tid_TCPThread                            0x20000030   Data           4  tcpthread.o(.data)
    osThreadId_osTimerThread                 0x20000034   Data           4  rtx_conf_cm.o(.data)
    osMessageQId_osTimerMessageQ             0x20000038   Data           4  rtx_conf_cm.o(.data)
    os_tmr                                   0x2000003c   Data           4  rtx_conf_cm.o(.data)
    m_tmr                                    0x20000040   Data           4  rtx_conf_cm.o(.data)
    os_thread_def_main                       0x20000044   Data          16  rtx_conf_cm.o(.data)
    otg_fs_role                              0x2000005f   Data           1  otg_fs_stm32f4xx.o(.data)
    otg_fs_state                             0x20000060   Data           1  otg_fs_stm32f4xx.o(.data)
    SystemCoreClock                          0x20000084   Data           4  system_stm32f4xx.o(.data)
    AHBPrescTable                            0x20000088   Data          16  system_stm32f4xx.o(.data)
    lhost_name                               0x20000098   Data          16  net_config.o(.data)
    usbd0_alt_setting                        0x200000b0   Data           2  usbd_config_0.o(.data)
    usbd0_ep0_buf                            0x200000b4   Data           8  usbd_config_0.o(.data)
    usbd_core_thread_id                      0x200000bc   Data           4  usbd_config_0.o(.data)
    usbd_driver_semaphore_id                 0x200000c0   Data           4  usbd_config_0.o(.data)
    os_semaphore_cb_usbd0_driver_semaphore_def 0x200000c4   Data           8  usbd_config_0.o(.data)
    usbd_cdc_int_thread_id                   0x200000cc   Data           4  usbd_config_0.o(.data)
    usbd_cdc_bulk_thread_id                  0x200000d0   Data           4  usbd_config_0.o(.data)
    usbd_ep_thread_id_ptr                    0x200000d4   Data          12  usbd_config_0.o(.data)
    usbd_drv_version                         0x200000e0   Data           4  usbd_config_0.o(.data)
    usbd_capabilities                        0x200000e4   Data           4  usbd_config_0.o(.data)
    usbd0_desc                               0x200000e8   Data          36  usbd_config_0.o(.data)
    usbd_desc_ptr                            0x2000010c   Data           4  usbd_config_0.o(.data)
    os_initialized                           0x20000110   Data           1  rt_cmsis.o(.data)
    os_running                               0x20000111   Data           1  rt_cmsis.o(.data)
    os_timer_head                            0x20000114   Data           4  rt_cmsis.o(.data)
    os_tsk                                   0x20000154   Data           8  rt_task.o(.data)
    os_tick_irqn                             0x20000160   Data           4  rt_system.o(.data)
    os_time                                  0x20000164   Data           4  rt_time.o(.data)
    dbg_msg                                  0x20000168   Data           1  hal_cm.o(.data)
    os_robin                                 0x2000016c   Data           8  rt_robin.o(.data)
    dacfifo                                  0x20000174   Data       32768  dacfifo.o(.bss)
    g_hDAC                                   0x20008174   Data          20  dacmodule.o(.bss)
    g_hTIMDAC                                0x20008188   Data          60  dacmodule.o(.bss)
    DACLerp                                  0x200081c4   Data          28  dacmodule.o(.bss)
    CNCLerp                                  0x200081e0   Data          10  dacmodule.o(.bss)
    DACFastLerp                              0x200081ea   Data          16  dacmodule.o(.bss)
    fifo                                     0x200081fa   Data          10  tcpthread.o(.bss)
    mp_tcb                                   0x20008208   Data         480  rtx_conf_cm.o(.bss)
    mp_stk                                   0x200083e8   Data        6160  rtx_conf_cm.o(.bss)
    os_stack_mem                             0x20009bf8   Data       10800  rtx_conf_cm.o(.bss)
    os_fifo                                  0x2000c628   Data          36  rtx_conf_cm.o(.bss)
    os_active_TCB                            0x2000c64c   Data          36  rtx_conf_cm.o(.bss)
    os_messageQ_q_osTimerMessageQ            0x2000c670   Data          32  rtx_conf_cm.o(.bss)
    usbd0_data                               0x2001a9d8   Data          52  usbd_config_0.o(.bss)
    usbd_cdc0_acm_send_buf                   0x2001aa0c   Data        1024  usbd_config_0.o(.bss)
    usbd_cdc0_acm_receive_buf                0x2001ae0c   Data        1024  usbd_config_0.o(.bss)
    usbd_cdc0_acm_notify_buf                 0x2001b20c   Data          10  usbd_config_0.o(.bss)
    usbd_cdc_data                            0x2001b218   Data          48  usbd_config_0.o(.bss)
    eth_control                              0x2001b248   Data         136  net_eth.o(.bss)
    localm                                   0x2001b2ec   Data          60  net_sys.o(.bss)
    sys_control                              0x2001b328   Data          24  net_sys.o(.bss)
    os_timer_cb_net_tick                     0x2001b340   Data          24  net_sys.o(.bss)
    os_idle_TCB                              0x2001b358   Data          52  rt_task.o(.bss)
    os_rdy                                   0x2001b38c   Data          24  rt_list.o(.bss)
    os_dly                                   0x2001b3a4   Data          24  rt_list.o(.bss)
    __initial_sp                             0x2001b7e0   Data           0  startup_stm32f407xx.o(STACK)



==============================================================================

Memory Map of the image

  Image Entry point : 0x08000189

  Load Region LR_IROM1 (Base: 0x08000000, Size: 0x000151a0, Max: 0x00100000, ABSOLUTE, COMPRESSED[0x000150ac])

    Execution Region ER_IROM1 (Base: 0x08000000, Size: 0x0001502c, Max: 0x00100000, ABSOLUTE)

    Base Addr    Size         Type   Attr      Idx    E Section Name        Object

    0x08000000   0x00000188   Data   RO         1090    RESET               startup_stm32f407xx.o
    0x08000188   0x00000000   Code   RO         2926  * .ARM.Collect$$$$00000000  mc_w.l(entry.o)
    0x08000188   0x00000004   Code   RO         3204    .ARM.Collect$$$$00000001  mc_w.l(entry2.o)
    0x0800018c   0x00000004   Code   RO         3207    .ARM.Collect$$$$00000004  mc_w.l(entry5.o)
    0x08000190   0x00000000   Code   RO         3209    .ARM.Collect$$$$00000008  mc_w.l(entry7b.o)
    0x08000190   0x00000000   Code   RO         3211    .ARM.Collect$$$$0000000A  mc_w.l(entry8b.o)
    0x08000190   0x00000000   Code   RO         3212    .ARM.Collect$$$$0000000D  mc_w.l(entry10a.o)
    0x08000190   0x00000000   Code   RO         3214    .ARM.Collect$$$$0000000F  mc_w.l(entry11a.o)
    0x08000190   0x00000018   Code   RO          511    .ARM.Collect$$$$000000FF  rtx_conf_cm.o
    0x080001a8   0x00000004   Code   RO         3205    .ARM.Collect$$$$00002712  mc_w.l(entry2.o)
    0x080001ac   0x00000180   Code   RO         2913    .emb_text           RTX_CM4.lib(hal_cm4.o)
    0x0800032c   0x0000002c   Code   RO            4    .text               stm32f4xx_it.o
    0x08000358   0x00000160   Code   RO          108    .text               main.o
    0x080004b8   0x00000014   Code   RO          204    .text               stm32f4xx_hal_msp.o
    0x080004cc   0x000001a8   Code   RO          234    .text               dacfifo.o
    0x08000674   0x0000008c   Code   RO          294    .text               gpiomodule.o
    0x08000700   0x0000047c   Code   RO          350    .text               dacmodule.o
    0x08000b7c   0x00000018   Code   RO          389    .text               usbd_user_cdc_0.o
    0x08000b94   0x000002d0   Code   RO          404    .text               tcpthread.o
    0x08000e64   0x00000224   Code   RO          434    .text               cnclerp.o
    0x08001088   0x00000034   Code   RO          512    .text               rtx_conf_cm.o
    0x080010bc   0x000001ac   Code   RO          540    .text               phy_lan8720.o
    0x08001268   0x00000aa0   Code   RO          567    .text               emac_stm32f4xx.o
    0x08001d08   0x000003a4   Code   RO          618    .text               otg_fs_stm32f4xx.o
    0x080020ac   0x000014b8   Code   RO          657    .text               usart_stm32f4xx.o
    0x08003564   0x000013b8   Code   RO          692    .text               usbd_fs_stm32f4xx.o
    0x0800491c   0x000001a0   Code   RO          722    .text               stm32f4xx_hal.o
    0x08004abc   0x000002c4   Code   RO          748    .text               stm32f4xx_hal_cortex.o
    0x08004d80   0x000003b0   Code   RO          776    .text               stm32f4xx_hal_dac.o
    0x08005130   0x000000fe   Code   RO          800    .text               stm32f4xx_hal_dac_ex.o
    0x0800522e   0x00000002   PAD
    0x08005230   0x00005ef4   Code   RO          824    .text               stm32f4xx_hal_dma.o
    0x0800b124   0x000003c0   Code   RO          872    .text               stm32f4xx_hal_gpio.o
    0x0800b4e4   0x00000aac   Code   RO          944    .text               stm32f4xx_hal_rcc.o
    0x0800bf90   0x00002800   Code   RO          995    .text               stm32f4xx_hal_tim.o
    0x0800e790   0x00000d88   Code   RO         1019    .text               stm32f4xx_hal_tim_ex.o
    0x0800f518   0x00000024   Code   RO         1091    .text               startup_stm32f407xx.o
    0x0800f53c   0x00000120   Code   RO         1098    .text               system_stm32f4xx.o
    0x0800f65c   0x00000118   Code   RO         1125    .text               net_config.o
    0x0800f774   0x00000164   Code   RO         1161    .text               usbd_config_0.o
    0x0800f8d8   0x00000062   Code   RO         2929    .text               mc_w.l(uldiv.o)
    0x0800f93a   0x00000024   Code   RO         2931    .text               mc_w.l(memcpya.o)
    0x0800f95e   0x00000024   Code   RO         2933    .text               mc_w.l(memseta.o)
    0x0800f982   0x0000000e   Code   RO         2935    .text               mc_w.l(strlen.o)
    0x0800f990   0x0000001e   Code   RO         3221    .text               mc_w.l(llshl.o)
    0x0800f9ae   0x00000020   Code   RO         3223    .text               mc_w.l(llushr.o)
    0x0800f9ce   0x00000002   PAD
    0x0800f9d0   0x00000024   Code   RO         3242    .text               mc_w.l(init.o)
    0x0800f9f4   0x00000056   Code   RO         3264    .text               mc_w.l(__dczerorl2.o)
    0x0800fa4a   0x00000002   PAD
    0x0800fa4c   0x00000004   Code   RO         2923    SVC_TABLE           RTX_CM4.lib(svc_table.o)
    0x0800fa50   0x00000006   Code   RO         2052    i.USBD0_CoreThread  USB_CM3_L.lib(usbd_core.o)
    0x0800fa56   0x00000006   Code   RO         2170    i.USBD_CDC0_Bulk_Thread  USB_CM3_L.lib(usbd_cdc.o)
    0x0800fa5c   0x00000006   Code   RO         2171    i.USBD_CDC0_Int_Thread  USB_CM3_L.lib(usbd_cdc.o)
    0x0800fa62   0x00000004   Code   RO         2178    i.USBD_CDC_ACM_CoreClearCommFeature  USB_CM3_L.lib(usbd_cdc.o)
    0x0800fa66   0x00000004   Code   RO         2179    i.USBD_CDC_ACM_CoreGetCommFeature  USB_CM3_L.lib(usbd_cdc.o)
    0x0800fa6a   0x00000004   Code   RO         2180    i.USBD_CDC_ACM_CoreGetEncapsulatedResponse  USB_CM3_L.lib(usbd_cdc.o)
    0x0800fa6e   0x00000002   PAD
    0x0800fa70   0x00000074   Code   RO         2181    i.USBD_CDC_ACM_CoreGetLineCoding  USB_CM3_L.lib(usbd_cdc.o)
    0x0800fae4   0x00000080   Code   RO         2182    i.USBD_CDC_ACM_CoreReset  USB_CM3_L.lib(usbd_cdc.o)
    0x0800fb64   0x00000004   Code   RO         2183    i.USBD_CDC_ACM_CoreSendBreak  USB_CM3_L.lib(usbd_cdc.o)
    0x0800fb68   0x00000004   Code   RO         2184    i.USBD_CDC_ACM_CoreSendEncapsulatedCommand  USB_CM3_L.lib(usbd_cdc.o)
    0x0800fb6c   0x00000004   Code   RO         2185    i.USBD_CDC_ACM_CoreSetCommFeature  USB_CM3_L.lib(usbd_cdc.o)
    0x0800fb70   0x00000038   Code   RO         2186    i.USBD_CDC_ACM_CoreSetControlLineState  USB_CM3_L.lib(usbd_cdc.o)
    0x0800fba8   0x00000064   Code   RO         2187    i.USBD_CDC_ACM_CoreSetLineCoding  USB_CM3_L.lib(usbd_cdc.o)
    0x0800fc0c   0x000000a8   Code   RO         2193    i.USBD_CDC_ACM_WriteData  USB_CM3_L.lib(usbd_cdc.o)
    0x0800fcb4   0x0000002a   Code   RO         2194    i.USBD_CDC_Bulk_Thread  USB_CM3_L.lib(usbd_cdc.o)
    0x0800fcde   0x00000002   PAD
    0x0800fce0   0x0000003c   Code   RO         2195    i.USBD_CDC_CheckInstance  USB_CM3_L.lib(usbd_cdc.o)
    0x0800fd1c   0x00000068   Code   RO         2196    i.USBD_CDC_ClassInitialize  USB_CM3_L.lib(usbd_cdc.o)
    0x0800fd84   0x00000050   Code   RO         2197    i.USBD_CDC_ClassUninitialize  USB_CM3_L.lib(usbd_cdc.o)
    0x0800fdd4   0x00000058   Code   RO         2198    i.USBD_CDC_EventEndpointStart  USB_CM3_L.lib(usbd_cdc.o)
    0x0800fe2c   0x000000f0   Code   RO         2199    i.USBD_CDC_EventEpBulkIn  USB_CM3_L.lib(usbd_cdc.o)
    0x0800ff1c   0x000000c0   Code   RO         2200    i.USBD_CDC_EventEpBulkOut  USB_CM3_L.lib(usbd_cdc.o)
    0x0800ffdc   0x00000038   Code   RO         2201    i.USBD_CDC_EventReset  USB_CM3_L.lib(usbd_cdc.o)
    0x08010014   0x00000030   Code   RO         2202    i.USBD_CDC_Int_Thread  USB_CM3_L.lib(usbd_cdc.o)
    0x08010044   0x0000002c   Code   RO         2056    i.USBD_CheckDevice  USB_CM3_L.lib(usbd_core.o)
    0x08010070   0x00000062   Code   RO         2059    i.USBD_Core         USB_CM3_L.lib(usbd_core.o)
    0x080100d2   0x00000002   PAD
    0x080100d4   0x0000008c   Code   RO         2060    i.USBD_CoreThread   USB_CM3_L.lib(usbd_core.o)
    0x08010160   0x00000054   Code   RO         2061    i.USBD_DataInStage  USB_CM3_L.lib(usbd_core.o)
    0x080101b4   0x0000002c   Code   RO         2062    i.USBD_DataOutStage  USB_CM3_L.lib(usbd_core.o)
    0x080101e0   0x00000044   Code   RO         2068    i.USBD_DriverDeviceSetAddress  USB_CM3_L.lib(usbd_core.o)
    0x08010224   0x0000007c   Code   RO         2069    i.USBD_DriverEndpointConfigure  USB_CM3_L.lib(usbd_core.o)
    0x080102a0   0x00000078   Code   RO         2070    i.USBD_DriverEndpointStall  USB_CM3_L.lib(usbd_core.o)
    0x08010318   0x0000009c   Code   RO         2071    i.USBD_DriverEndpointTransfer  USB_CM3_L.lib(usbd_core.o)
    0x080103b4   0x00000078   Code   RO         2072    i.USBD_DriverEndpointTransferAbort  USB_CM3_L.lib(usbd_core.o)
    0x0801042c   0x0000003c   Code   RO         2073    i.USBD_DriverEndpointTransferGetResult  USB_CM3_L.lib(usbd_core.o)
    0x08010468   0x00000074   Code   RO         2074    i.USBD_DriverEndpointUnconfigure  USB_CM3_L.lib(usbd_core.o)
    0x080104dc   0x00000044   Code   RO         2080    i.USBD_DriverReadSetupPacket  USB_CM3_L.lib(usbd_core.o)
    0x08010520   0x00000254   Code   RO         2082    i.USBD_Endpoint0    USB_CM3_L.lib(usbd_core.o)
    0x08010774   0x00000088   Code   RO         2882    i.USBD_Endpoint0_Out_CDC_ReqToIF  USB_CM3_L.lib(usbd_core_cdc.o)
    0x080107fc   0x000000e4   Code   RO         2883    i.USBD_Endpoint0_Setup_CDC_ReqToIF  USB_CM3_L.lib(usbd_core_cdc.o)
    0x080108e0   0x00000060   Code   RO         2086    i.USBD_EndpointStall  USB_CM3_L.lib(usbd_core.o)
    0x08010940   0x00000024   Code   RO         2090    i.USBD_ReqGetConfiguration  USB_CM3_L.lib(usbd_core.o)
    0x08010964   0x0000013c   Code   RO         2091    i.USBD_ReqGetDescriptor  USB_CM3_L.lib(usbd_core.o)
    0x08010aa0   0x00000034   Code   RO         2092    i.USBD_ReqGetInterface  USB_CM3_L.lib(usbd_core.o)
    0x08010ad4   0x0000007c   Code   RO         2093    i.USBD_ReqGetStatus  USB_CM3_L.lib(usbd_core.o)
    0x08010b50   0x00000028   Code   RO         2094    i.USBD_ReqSetAddress  USB_CM3_L.lib(usbd_core.o)
    0x08010b78   0x000000ec   Code   RO         2095    i.USBD_ReqSetClrFeature  USB_CM3_L.lib(usbd_core.o)
    0x08010c64   0x00000228   Code   RO         2096    i.USBD_ReqSetConfiguration  USB_CM3_L.lib(usbd_core.o)
    0x08010e8c   0x00000184   Code   RO         2097    i.USBD_ReqSetInterface  USB_CM3_L.lib(usbd_core.o)
    0x08011010   0x00000068   Code   RO         2098    i.USBD_ResetCore    USB_CM3_L.lib(usbd_core.o)
    0x08011078   0x00000018   Code   RO         2099    i.USBD_SetupStage   USB_CM3_L.lib(usbd_core.o)
    0x08011090   0x00000010   Code   RO         2100    i.USBD_SignalDeviceEvent  USB_CM3_L.lib(usbd_core.o)
    0x080110a0   0x0000004c   Code   RO         2101    i.USBD_SignalEndpointEvent  USB_CM3_L.lib(usbd_core.o)
    0x080110ec   0x0000000c   Code   RO         2102    i.USBD_StatusInStage  USB_CM3_L.lib(usbd_core.o)
    0x080110f8   0x00000012   Code   RO         2103    i.USBD_StatusInStageDone  USB_CM3_L.lib(usbd_core.o)
    0x0801110a   0x0000000c   Code   RO         2104    i.USBD_StatusOutStage  USB_CM3_L.lib(usbd_core.o)
    0x08011116   0x00000002   PAD
    0x08011118   0x00000034   Code   RO         2105    i.USBD_StatusOutStageDone  USB_CM3_L.lib(usbd_core.o)
    0x0801114c   0x00000018   Code   RO         2106    i.USBD_SwitchToHighSpeedCore  USB_CM3_L.lib(usbd_core.o)
    0x08011164   0x0000000e   Code   RO         3258    i.__scatterload_copy  mc_w.l(handlers.o)
    0x08011172   0x00000002   Code   RO         3259    i.__scatterload_null  mc_w.l(handlers.o)
    0x08011174   0x0000000e   Code   RO         3260    i.__scatterload_zeroinit  mc_w.l(handlers.o)
    0x08011182   0x00000046   Code   RO         2689    i._init_box         RTX_CM4.lib(rt_membox.o)
    0x080111c8   0x000000a4   Code   RO         1868    i.arp_cache_add     Net_CM3_L.lib(net_arp.o)
    0x0801126c   0x00000088   Code   RO         1869    i.arp_cache_alloc   Net_CM3_L.lib(net_arp.o)
    0x080112f4   0x00000088   Code   RO         1870    i.arp_cache_early   Net_CM3_L.lib(net_arp.o)
    0x0801137c   0x000000a0   Code   RO         1871    i.arp_cache_find    Net_CM3_L.lib(net_arp.o)
    0x0801141c   0x000000e4   Code   RO         1874    i.arp_cache_update  Net_CM3_L.lib(net_arp.o)
    0x08011500   0x00000030   Code   RO         1878    i.arp_init          Net_CM3_L.lib(net_arp.o)
    0x08011530   0x0000003c   Code   RO         1879    i.arp_is_cacheable  Net_CM3_L.lib(net_arp.o)
    0x0801156c   0x00000028   Code   RO         1880    i.arp_notify        Net_CM3_L.lib(net_arp.o)
    0x08011594   0x00000074   Code   RO         1882    i.arp_proc_response  Net_CM3_L.lib(net_arp.o)
    0x08011608   0x00000120   Code   RO         1883    i.arp_process       Net_CM3_L.lib(net_arp.o)
    0x08011728   0x00000090   Code   RO         1884    i.arp_send_reply    Net_CM3_L.lib(net_arp.o)
    0x080117b8   0x000000c0   Code   RO         1885    i.arp_send_request  Net_CM3_L.lib(net_arp.o)
    0x08011878   0x00000032   Code   RO         2821    i.chksum16          Net_CM3_L.lib(net_common.o)
    0x080118aa   0x00000002   PAD
    0x080118ac   0x00000030   Code   RO         2742    i.dbg_init          RTX_CM4.lib(hal_cm.o)
    0x080118dc   0x00000020   Code   RO         2743    i.dbg_task_notify   RTX_CM4.lib(hal_cm.o)
    0x080118fc   0x00000010   Code   RO         2744    i.dbg_task_switch   RTX_CM4.lib(hal_cm.o)
    0x0801190c   0x000000c0   Code   RO         1837    i.eth_check_link    Net_CM3_L.lib(net_eth.o)
    0x080119cc   0x00000020   Code   RO         1838    i.eth_chk_addr      Net_CM3_L.lib(net_eth.o)
    0x080119ec   0x00000074   Code   RO         1839    i.eth_fetch_frame   Net_CM3_L.lib(net_eth.o)
    0x08011a60   0x000000f8   Code   RO         1841    i.eth_init_link     Net_CM3_L.lib(net_eth.o)
    0x08011b58   0x00000002   Code   RO         1842    i.eth_link_notify   Net_CM3_L.lib(net_eth.o)
    0x08011b5a   0x00000002   PAD
    0x08011b5c   0x00000014   Code   RO         1843    i.eth_notify        Net_CM3_L.lib(net_eth.o)
    0x08011b70   0x000000e4   Code   RO         1844    i.eth_run_link      Net_CM3_L.lib(net_eth.o)
    0x08011c54   0x000000a8   Code   RO         1845    i.eth_send_frame    Net_CM3_L.lib(net_eth.o)
    0x08011cfc   0x0000000e   Code   RO         1847    i.eth_thread        Net_CM3_L.lib(net_eth.o)
    0x08011d0a   0x00000002   PAD
    0x08011d0c   0x0000001c   Code   RO         2823    i.get_crc32         Net_CM3_L.lib(net_common.o)
    0x08011d28   0x0000001c   Code   RO         2034    i.get_rnd32         Net_CM3_L.lib(net_sys.o)
    0x08011d44   0x000000dc   Code   RO         1941    i.icmp_process      Net_CM3_L.lib(net_icmp.o)
    0x08011e20   0x00000080   Code   RO         1942    i.icmp_send_message  Net_CM3_L.lib(net_icmp.o)
    0x08011ea0   0x00000010   Code   RO         1943    i.icmp_service_init  Net_CM3_L.lib(net_icmp.o)
    0x08011eb0   0x00000048   Code   RO         1944    i.icmp_service_run  Net_CM3_L.lib(net_icmp.o)
    0x08011ef8   0x0000004c   Code   RO         1912    i.ip4_checksum      Net_CM3_L.lib(net_ip.o)
    0x08011f44   0x000000d0   Code   RO         1913    i.ip_chk_frame      Net_CM3_L.lib(net_ip.o)
    0x08012014   0x0000000a   Code   RO         1914    i.ip_get_chksum     Net_CM3_L.lib(net_ip.o)
    0x0801201e   0x00000002   PAD
    0x08012020   0x00000044   Code   RO         1915    i.ip_get_locadr     Net_CM3_L.lib(net_ip.o)
    0x08012064   0x0000008c   Code   RO         1916    i.ip_get_route      Net_CM3_L.lib(net_ip.o)
    0x080120f0   0x0000001c   Code   RO         1917    i.ip_localhost_init  Net_CM3_L.lib(net_ip.o)
    0x0801210c   0x00000060   Code   RO         1918    i.ip_localhost_run  Net_CM3_L.lib(net_ip.o)
    0x0801216c   0x00000140   Code   RO         1919    i.ip_send_frame     Net_CM3_L.lib(net_ip.o)
    0x080122ac   0x00000030   Code   RO         1920    i.ip_tx_offload     Net_CM3_L.lib(net_ip.o)
    0x080122dc   0x0000001a   Code   RO         2852    i.is_subnet         Net_CM3_L.lib(net_addr4.o)
    0x080122f6   0x00000002   PAD
    0x080122f8   0x00000028   Code   RO         1921    i.is_subnet_bcast   Net_CM3_L.lib(net_ip.o)
    0x08012320   0x0000002a   Code   RO         1215    i.isrMessageGet     RTX_CM4.lib(rt_cmsis.o)
    0x0801234a   0x0000002c   Code   RO         1216    i.isrMessagePut     RTX_CM4.lib(rt_cmsis.o)
    0x08012376   0x00000028   Code   RO         1217    i.isrSemaphoreRelease  RTX_CM4.lib(rt_cmsis.o)
    0x0801239e   0x00000024   Code   RO         1218    i.isrSignalSet      RTX_CM4.lib(rt_cmsis.o)
    0x080123c2   0x00000002   PAD
    0x080123c4   0x00000028   Code   RO         2417    i.isr_evt_set       RTX_CM4.lib(rt_event.o)
    0x080123ec   0x00000052   Code   RO         2535    i.isr_mbx_receive   RTX_CM4.lib(rt_mailbox.o)
    0x0801243e   0x0000000e   Code   RO         2536    i.isr_mbx_send      RTX_CM4.lib(rt_mailbox.o)
    0x0801244c   0x00000010   Code   RO         2583    i.isr_sem_send      RTX_CM4.lib(rt_semaphore.o)
    0x0801245c   0x0000008c   Code   RO         2795    i.mem_alloc         Net_CM3_L.lib(net_mem.o)
    0x080124e8   0x0000001c   Code   RO         2796    i.mem_avail         Net_CM3_L.lib(net_mem.o)
    0x08012504   0x00000020   Code   RO         2824    i.mem_crc32         Net_CM3_L.lib(net_common.o)
    0x08012524   0x0000006c   Code   RO         2797    i.mem_free          Net_CM3_L.lib(net_mem.o)
    0x08012590   0x00000064   Code   RO         2798    i.mem_init          Net_CM3_L.lib(net_mem.o)
    0x080125f4   0x00000010   Code   RO         2799    i.mem_lock          Net_CM3_L.lib(net_mem.o)
    0x08012604   0x00000038   Code   RO         2800    i.mem_resize        Net_CM3_L.lib(net_mem.o)
    0x0801263c   0x0000000c   Code   RO         2801    i.mem_unlock        Net_CM3_L.lib(net_mem.o)
    0x08012648   0x0000004c   Code   RO         2035    i.net_initialize    Net_CM3_L.lib(net_sys.o)
    0x08012694   0x00000064   Code   RO         2036    i.net_main          Net_CM3_L.lib(net_sys.o)
    0x080126f8   0x00000014   Code   RO         2037    i.net_timer_tick    Net_CM3_L.lib(net_sys.o)
    0x0801270c   0x00000018   Code   RO         1219    i.osDelay           RTX_CM4.lib(rt_cmsis.o)
    0x08012724   0x00000024   Code   RO         1220    i.osKernelInitialize  RTX_CM4.lib(rt_cmsis.o)
    0x08012748   0x0000006c   Code   RO         1222    i.osKernelStart     RTX_CM4.lib(rt_cmsis.o)
    0x080127b4   0x00000018   Code   RO         1231    i.osMessageGet      RTX_CM4.lib(rt_cmsis.o)
    0x080127cc   0x00000030   Code   RO         1233    i.osMutexCreate     RTX_CM4.lib(rt_cmsis.o)
    0x080127fc   0x00000018   Code   RO         1235    i.osMutexRelease    RTX_CM4.lib(rt_cmsis.o)
    0x08012814   0x00000018   Code   RO         1236    i.osMutexWait       RTX_CM4.lib(rt_cmsis.o)
    0x0801282c   0x00000018   Code   RO         1243    i.osSemaphoreRelease  RTX_CM4.lib(rt_cmsis.o)
    0x08012844   0x00000018   Code   RO         1244    i.osSemaphoreWait   RTX_CM4.lib(rt_cmsis.o)
    0x0801285c   0x00000018   Code   RO         1246    i.osSignalSet       RTX_CM4.lib(rt_cmsis.o)
    0x08012874   0x00000018   Code   RO         1247    i.osSignalWait      RTX_CM4.lib(rt_cmsis.o)
    0x0801288c   0x00000030   Code   RO         1248    i.osThreadCreate    RTX_CM4.lib(rt_cmsis.o)
    0x080128bc   0x00000018   Code   RO         1249    i.osThreadExit      RTX_CM4.lib(rt_cmsis.o)
    0x080128d4   0x00000018   Code   RO         1253    i.osThreadTerminate  RTX_CM4.lib(rt_cmsis.o)
    0x080128ec   0x0000000c   Code   RO         1255    i.osTimerCall       RTX_CM4.lib(rt_cmsis.o)
    0x080128f8   0x00000034   Code   RO         1256    i.osTimerCreate     RTX_CM4.lib(rt_cmsis.o)
    0x0801292c   0x00000018   Code   RO         1258    i.osTimerStart      RTX_CM4.lib(rt_cmsis.o)
    0x08012944   0x0000002c   Code   RO         1260    i.osTimerThread     RTX_CM4.lib(rt_cmsis.o)
    0x08012970   0x0000001a   Code   RO         2690    i.rt_alloc_box      RTX_CM4.lib(rt_membox.o)
    0x0801298a   0x0000003e   Code   RO         2718    i.rt_alloc_mem      RTX_CM4.lib(rt_memory.o)
    0x080129c8   0x00000038   Code   RO         2242    i.rt_block          RTX_CM4.lib(rt_task.o)
    0x08012a00   0x00000048   Code   RO         2892    i.rt_chk_robin      RTX_CM4.lib(rt_robin.o)
    0x08012a48   0x00000070   Code   RO         2459    i.rt_dec_dly        RTX_CM4.lib(rt_list.o)
    0x08012ab8   0x00000044   Code   RO         2243    i.rt_dispatch       RTX_CM4.lib(rt_task.o)
    0x08012afc   0x00000006   Code   RO         2625    i.rt_dly_wait       RTX_CM4.lib(rt_time.o)
    0x08012b02   0x00000002   PAD
    0x08012b04   0x00000050   Code   RO         2420    i.rt_evt_psh        RTX_CM4.lib(rt_event.o)
    0x08012b54   0x0000005c   Code   RO         2421    i.rt_evt_set        RTX_CM4.lib(rt_event.o)
    0x08012bb0   0x0000003c   Code   RO         2422    i.rt_evt_wait       RTX_CM4.lib(rt_event.o)
    0x08012bec   0x00000020   Code   RO         2691    i.rt_free_box       RTX_CM4.lib(rt_membox.o)
    0x08012c0c   0x00000028   Code   RO         2719    i.rt_free_mem       RTX_CM4.lib(rt_memory.o)
    0x08012c34   0x00000028   Code   RO         2460    i.rt_get_first      RTX_CM4.lib(rt_list.o)
    0x08012c5c   0x00000008   Code   RO         1265    i.rt_id2obj         RTX_CM4.lib(rt_cmsis.o)
    0x08012c64   0x00000048   Code   RO         2244    i.rt_init_context   RTX_CM4.lib(rt_task.o)
    0x08012cac   0x0000001a   Code   RO         2720    i.rt_init_mem       RTX_CM4.lib(rt_memory.o)
    0x08012cc6   0x00000002   PAD
    0x08012cc8   0x00000018   Code   RO         2893    i.rt_init_robin     RTX_CM4.lib(rt_robin.o)
    0x08012ce0   0x00000080   Code   RO         2745    i.rt_init_stack     RTX_CM4.lib(hal_cm.o)
    0x08012d60   0x00000008   Code   RO         2537    i.rt_mbx_check      RTX_CM4.lib(rt_mailbox.o)
    0x08012d68   0x0000001a   Code   RO         2538    i.rt_mbx_init       RTX_CM4.lib(rt_mailbox.o)
    0x08012d82   0x00000002   PAD
    0x08012d84   0x000000f0   Code   RO         2539    i.rt_mbx_psh        RTX_CM4.lib(rt_mailbox.o)
    0x08012e74   0x000000b4   Code   RO         2541    i.rt_mbx_wait       RTX_CM4.lib(rt_mailbox.o)
    0x08012f28   0x0000003c   Code   RO         1266    i.rt_ms2tick        RTX_CM4.lib(rt_cmsis.o)
    0x08012f64   0x00000010   Code   RO         2659    i.rt_mut_init       RTX_CM4.lib(rt_mutex.o)
    0x08012f74   0x000000d8   Code   RO         2660    i.rt_mut_release    RTX_CM4.lib(rt_mutex.o)
    0x0801304c   0x00000068   Code   RO         2661    i.rt_mut_wait       RTX_CM4.lib(rt_mutex.o)
    0x080130b4   0x0000007c   Code   RO         2331    i.rt_pop_req        RTX_CM4.lib(rt_system.o)
    0x08013130   0x00000020   Code   RO         2332    i.rt_psh_req        RTX_CM4.lib(rt_system.o)
    0x08013150   0x0000005c   Code   RO         2462    i.rt_psq_enq        RTX_CM4.lib(rt_list.o)
    0x080131ac   0x00000048   Code   RO         2463    i.rt_put_dly        RTX_CM4.lib(rt_list.o)
    0x080131f4   0x00000036   Code   RO         2464    i.rt_put_prio       RTX_CM4.lib(rt_list.o)
    0x0801322a   0x00000002   PAD
    0x0801322c   0x00000014   Code   RO         2465    i.rt_put_rdy_first  RTX_CM4.lib(rt_list.o)
    0x08013240   0x00000034   Code   RO         2466    i.rt_resort_prio    RTX_CM4.lib(rt_list.o)
    0x08013274   0x00000010   Code   RO         2746    i.rt_ret_regs       RTX_CM4.lib(hal_cm.o)
    0x08013284   0x0000000c   Code   RO         2747    i.rt_ret_val        RTX_CM4.lib(hal_cm.o)
    0x08013290   0x00000010   Code   RO         2748    i.rt_ret_val2       RTX_CM4.lib(hal_cm.o)
    0x080132a0   0x00000028   Code   RO         2467    i.rt_rmv_dly        RTX_CM4.lib(rt_list.o)
    0x080132c8   0x00000030   Code   RO         2468    i.rt_rmv_list       RTX_CM4.lib(rt_list.o)
    0x080132f8   0x00000034   Code   RO         2586    i.rt_sem_psh        RTX_CM4.lib(rt_semaphore.o)
    0x0801332c   0x0000002a   Code   RO         2587    i.rt_sem_send       RTX_CM4.lib(rt_semaphore.o)
    0x08013356   0x00000002   PAD
    0x08013358   0x00000040   Code   RO         2588    i.rt_sem_wait       RTX_CM4.lib(rt_semaphore.o)
    0x08013398   0x00000024   Code   RO         2334    i.rt_stk_check      RTX_CM4.lib(rt_system.o)
    0x080133bc   0x00000028   Code   RO         2245    i.rt_switch_req     RTX_CM4.lib(rt_task.o)
    0x080133e4   0x000000cc   Code   RO         2246    i.rt_sys_init       RTX_CM4.lib(rt_task.o)
    0x080134b0   0x00000078   Code   RO         2247    i.rt_sys_start      RTX_CM4.lib(rt_task.o)
    0x08013528   0x00000040   Code   RO         2336    i.rt_systick        RTX_CM4.lib(rt_system.o)
    0x08013568   0x00000012   Code   RO         1267    i.rt_tid2ptcb       RTX_CM4.lib(rt_cmsis.o)
    0x0801357a   0x00000002   PAD
    0x0801357c   0x00000034   Code   RO         1268    i.rt_timer_insert   RTX_CM4.lib(rt_cmsis.o)
    0x080135b0   0x0000003c   Code   RO         1269    i.rt_timer_remove   RTX_CM4.lib(rt_cmsis.o)
    0x080135ec   0x00000080   Code   RO         2248    i.rt_tsk_create     RTX_CM4.lib(rt_task.o)
    0x0801366c   0x00000174   Code   RO         2249    i.rt_tsk_delete     RTX_CM4.lib(rt_task.o)
    0x080137e0   0x0000007c   Code   RO         2251    i.rt_tsk_prio       RTX_CM4.lib(rt_task.o)
    0x0801385c   0x00000010   Code   RO         2252    i.rt_tsk_self       RTX_CM4.lib(rt_task.o)
    0x0801386c   0x00000014   Code   RO         1270    i.svcDelay          RTX_CM4.lib(rt_cmsis.o)
    0x08013880   0x00000070   Code   RO         1271    i.svcKernelInitialize  RTX_CM4.lib(rt_cmsis.o)
    0x080138f0   0x00000048   Code   RO         1273    i.svcKernelStart    RTX_CM4.lib(rt_cmsis.o)
    0x08013938   0x00000024   Code   RO         1276    i.svcMessageCreate  RTX_CM4.lib(rt_cmsis.o)
    0x0801395c   0x0000003a   Code   RO         1277    i.svcMessageGet     RTX_CM4.lib(rt_cmsis.o)
    0x08013996   0x0000001c   Code   RO         1279    i.svcMutexCreate    RTX_CM4.lib(rt_cmsis.o)
    0x080139b2   0x00000022   Code   RO         1281    i.svcMutexRelease   RTX_CM4.lib(rt_cmsis.o)
    0x080139d4   0x00000036   Code   RO         1282    i.svcMutexWait      RTX_CM4.lib(rt_cmsis.o)
    0x08013a0a   0x00000028   Code   RO         1286    i.svcSemaphoreRelease  RTX_CM4.lib(rt_cmsis.o)
    0x08013a32   0x00000032   Code   RO         1287    i.svcSemaphoreWait  RTX_CM4.lib(rt_cmsis.o)
    0x08013a64   0x00000024   Code   RO         1289    i.svcSignalSet      RTX_CM4.lib(rt_cmsis.o)
    0x08013a88   0x00000054   Code   RO         1290    i.svcSignalWait     RTX_CM4.lib(rt_cmsis.o)
    0x08013adc   0x00000070   Code   RO         1291    i.svcThreadCreate   RTX_CM4.lib(rt_cmsis.o)
    0x08013b4c   0x0000001c   Code   RO         1292    i.svcThreadGetId    RTX_CM4.lib(rt_cmsis.o)
    0x08013b68   0x00000038   Code   RO         1295    i.svcThreadTerminate  RTX_CM4.lib(rt_cmsis.o)
    0x08013ba0   0x00000018   Code   RO         1297    i.svcTimerCall      RTX_CM4.lib(rt_cmsis.o)
    0x08013bb8   0x00000038   Code   RO         1298    i.svcTimerCreate    RTX_CM4.lib(rt_cmsis.o)
    0x08013bf0   0x00000064   Code   RO         1300    i.svcTimerStart     RTX_CM4.lib(rt_cmsis.o)
    0x08013c54   0x0000005c   Code   RO         1306    i.sysTimerTick      RTX_CM4.lib(rt_cmsis.o)
    0x08013cb0   0x0000003c   Code   RO         1958    i.tcp_check_send    Net_CM3_L.lib(net_tcp.o)
    0x08013cec   0x0000001e   Code   RO         1962    i.tcp_get_buf       Net_CM3_L.lib(net_tcp.o)
    0x08013d0a   0x00000002   PAD
    0x08013d0c   0x00000050   Code   RO         1964    i.tcp_get_socket    Net_CM3_L.lib(net_tcp.o)
    0x08013d5c   0x0000006c   Code   RO         1967    i.tcp_listen        Net_CM3_L.lib(net_tcp.o)
    0x08013dc8   0x0000007c   Code   RO         1968    i.tcp_map_socket    Net_CM3_L.lib(net_tcp.o)
    0x08013e44   0x00000024   Code   RO         1969    i.tcp_max_data_size  Net_CM3_L.lib(net_tcp.o)
    0x08013e68   0x0000005e   Code   RO         1972    i.tcp_parse_opt     Net_CM3_L.lib(net_tcp.o)
    0x08013ec6   0x00000002   PAD
    0x08013ec8   0x000000c4   Code   RO         1973    i.tcp_proc_acknr    Net_CM3_L.lib(net_tcp.o)
    0x08013f8c   0x00000052   Code   RO         1974    i.tcp_proc_dupack   Net_CM3_L.lib(net_tcp.o)
    0x08013fde   0x00000002   PAD
    0x08013fe0   0x0000049a   Code   RO         1975    i.tcp_process       Net_CM3_L.lib(net_tcp.o)
    0x0801447a   0x0000001a   Code   RO         1976    i.tcp_que_free      Net_CM3_L.lib(net_tcp.o)
    0x08014494   0x0000001a   Code   RO         1977    i.tcp_que_init      Net_CM3_L.lib(net_tcp.o)
    0x080144ae   0x00000002   PAD
    0x080144b0   0x00000094   Code   RO         1978    i.tcp_que_resend    Net_CM3_L.lib(net_tcp.o)
    0x08014544   0x000000e0   Code   RO         1982    i.tcp_send          Net_CM3_L.lib(net_tcp.o)
    0x08014624   0x00000066   Code   RO         1983    i.tcp_send_ctrl     Net_CM3_L.lib(net_tcp.o)
    0x0801468a   0x0000004c   Code   RO         1984    i.tcp_send_data     Net_CM3_L.lib(net_tcp.o)
    0x080146d6   0x00000060   Code   RO         1985    i.tcp_send_reset    Net_CM3_L.lib(net_tcp.o)
    0x08014736   0x00000026   Code   RO         1986    i.tcp_set_cwnd      Net_CM3_L.lib(net_tcp.o)
    0x0801475c   0x00000014   Code   RO         1987    i.tcp_socket_init   Net_CM3_L.lib(net_tcp.o)
    0x08014770   0x00000288   Code   RO         1988    i.tcp_socket_poll   Net_CM3_L.lib(net_tcp.o)
    0x080149f8   0x00000068   Code   RO         1989    i.tcp_transit       Net_CM3_L.lib(net_tcp.o)
    0x08014a60   0x000000a4   Code   RO         1990    i.tcp_write         Net_CM3_L.lib(net_tcp.o)
    0x08014b04   0x00000010   Data   RO          406    .constdata          tcpthread.o
    0x08014b14   0x00000056   Data   RO          514    .constdata          rtx_conf_cm.o
    0x08014b6a   0x00000002   PAD
    0x08014b6c   0x00000024   Data   RO          541    .constdata          phy_lan8720.o
    0x08014b90   0x00000094   Data   RO          569    .constdata          emac_stm32f4xx.o
    0x08014c24   0x00000080   Data   RO          659    .constdata          usart_stm32f4xx.o
    0x08014ca4   0x00000050   Data   RO          694    .constdata          usbd_fs_stm32f4xx.o
    0x08014cf4   0x00000010   Data   RO          945    .constdata          stm32f4xx_hal_rcc.o
    0x08014d04   0x0000008c   Data   RO         1127    .constdata          net_config.o
    0x08014d90   0x000001d4   Data   RO         1163    .constdata          usbd_config_0.o
    0x08014f64   0x0000001c   Data   RO         1849    .constdata          Net_CM3_L.lib(net_eth.o)
    0x08014f80   0x00000008   Data   RO         1923    .constdata          Net_CM3_L.lib(net_ip.o)
    0x08014f88   0x00000008   Data   RO         2040    .constdata          Net_CM3_L.lib(net_sys.o)
    0x08014f90   0x00000004   Data   RO         2804    .constdata          Net_CM3_L.lib(net_mem.o)
    0x08014f94   0x00000008   Data   RO         2856    .constdata          Net_CM3_L.lib(net_addr4.o)
    0x08014f9c   0x0000006d   Data   RO         1991    .conststring        Net_CM3_L.lib(net_tcp.o)
    0x08015009   0x00000003   PAD
    0x0801500c   0x00000020   Data   RO         3257    Region$$Table       anon$$obj.o


    Execution Region RW_IRAM1 (Base: 0x20000000, Size: 0x0001b7e0, Max: 0x00020000, ABSOLUTE, COMPRESSED[0x00000080])

    Base Addr    Size         Type   Attr      Idx    E Section Name        Object

    0x20000000   0x0000001c   Data   RW          352    .data               dacmodule.o
    0x2000001c   0x00000018   Data   RW          407    .data               tcpthread.o
    0x20000034   0x00000020   Data   RW          515    .data               rtx_conf_cm.o
    0x20000054   0x0000000a   Data   RW          542    .data               phy_lan8720.o
    0x2000005e   0x00000003   Data   RW          619    .data               otg_fs_stm32f4xx.o
    0x20000061   0x00000003   PAD
    0x20000064   0x0000001c   Data   RW          695    .data               usbd_fs_stm32f4xx.o
    0x20000080   0x00000004   Data   RW          723    .data               stm32f4xx_hal.o
    0x20000084   0x00000014   Data   RW         1099    .data               system_stm32f4xx.o
    0x20000098   0x00000016   Data   RW         1128    .data               net_config.o
    0x200000ae   0x00000002   PAD
    0x200000b0   0x00000060   Data   RW         1164    .data               usbd_config_0.o
    0x20000110   0x00000008   Data   RW         1309    .data               RTX_CM4.lib(rt_cmsis.o)
    0x20000118   0x00000004   Data   RW         1850    .data               Net_CM3_L.lib(net_eth.o)
    0x2000011c   0x00000008   Data   RW         1886    .data               Net_CM3_L.lib(net_arp.o)
    0x20000124   0x00000030   Data   RW         1992    .data               Net_CM3_L.lib(net_tcp.o)
    0x20000154   0x00000008   Data   RW         2254    .data               RTX_CM4.lib(rt_task.o)
    0x2000015c   0x00000008   Data   RW         2339    .data               RTX_CM4.lib(rt_system.o)
    0x20000164   0x00000004   Data   RW         2629    .data               RTX_CM4.lib(rt_time.o)
    0x20000168   0x00000001   Data   RW         2749    .data               RTX_CM4.lib(hal_cm.o)
    0x20000169   0x00000003   PAD
    0x2000016c   0x00000008   Data   RW         2894    .data               RTX_CM4.lib(rt_robin.o)
    0x20000174   0x00008000   Zero   RW          235    .bss                dacfifo.o
    0x20008174   0x00000086   Zero   RW          351    .bss                dacmodule.o
    0x200081fa   0x0000000a   Zero   RW          405    .bss                tcpthread.o
    0x20008204   0x00000004   PAD
    0x20008208   0x00004488   Zero   RW          513    .bss                rtx_conf_cm.o
    0x2000c690   0x000024cc   Zero   RW          568    .bss                emac_stm32f4xx.o
    0x2000eb5c   0x00000038   Zero   RW          658    .bss                usart_stm32f4xx.o
    0x2000eb94   0x000000a0   Zero   RW          693    .bss                usbd_fs_stm32f4xx.o
    0x2000ec34   0x0000bda4   Zero   RW         1126    .bss                net_config.o
    0x2001a9d8   0x00000870   Zero   RW         1162    .bss                usbd_config_0.o
    0x2001b248   0x00000088   Zero   RW         1848    .bss                Net_CM3_L.lib(net_eth.o)
    0x2001b2d0   0x0000000c   Zero   RW         1922    .bss                Net_CM3_L.lib(net_ip.o)
    0x2001b2dc   0x00000010   Zero   RW         1945    .bss                Net_CM3_L.lib(net_icmp.o)
    0x2001b2ec   0x00000054   Zero   RW         2038    .bss                Net_CM3_L.lib(net_sys.o)
    0x2001b340   0x00000018   Zero   RW         2039    .bss                Net_CM3_L.lib(net_sys.o)
    0x2001b358   0x00000034   Zero   RW         2253    .bss                RTX_CM4.lib(rt_task.o)
    0x2001b38c   0x00000030   Zero   RW         2469    .bss                RTX_CM4.lib(rt_list.o)
    0x2001b3bc   0x00000010   Zero   RW         2802    .bss                Net_CM3_L.lib(net_mem.o)
    0x2001b3cc   0x00000014   Zero   RW         2803    .bss                Net_CM3_L.lib(net_mem.o)
    0x2001b3e0   0x00000400   Zero   RW         1088    STACK               startup_stm32f407xx.o


==============================================================================

Image component sizes


      Code (inc. data)   RO Data    RW Data    ZI Data      Debug   Object Name

       548          6          0          0          0       2434   cnclerp.o
       424          4          0          0      32768       3283   dacfifo.o
      1148         44          0         28        134       5195   dacmodule.o
      2720        168        148          0       9420      41814   emac_stm32f4xx.o
       140         12          0          0          0       1035   gpiomodule.o
       352         10          0          0          0      80889   main.o
       280        106        140         22      48548      10568   net_config.o
       932         48          0          3          0       5075   otg_fs_stm32f4xx.o
       428         16         36         10          0       5194   phy_lan8720.o
        76          6         86         32      17544       7838   rtx_conf_cm.o
        36          8        392          0       1024        860   startup_stm32f407xx.o
       416         26          0          4          0       4894   stm32f4xx_hal.o
       708         22          0          0          0      31622   stm32f4xx_hal_cortex.o
       944         26          0          0          0       6115   stm32f4xx_hal_dac.o
       254          0          0          0          0       3601   stm32f4xx_hal_dac_ex.o
     24308        262          0          0          0      17248   stm32f4xx_hal_dma.o
       960         50          0          0          0       3783   stm32f4xx_hal_gpio.o
        20          0          0          0          0        596   stm32f4xx_hal_msp.o
      2732         76         16          0          0       5718   stm32f4xx_hal_rcc.o
     10240        152          0          0          0      31044   stm32f4xx_hal_tim.o
      3464         26          0          0          0      11826   stm32f4xx_hal_tim_ex.o
        44          6          0          0          0     301137   stm32f4xx_it.o
       288         32          0         20          0       1711   system_stm32f4xx.o
       720         68         16         24         10       3687   tcpthread.o
      5304        140        128          0         56      41428   usart_stm32f4xx.o
       356          4        468         96       2160      23090   usbd_config_0.o
      5048        212         80         28        160      11416   usbd_fs_stm32f4xx.o
        24          0          0          0          0       1740   usbd_user_cdc_0.o

    ----------------------------------------------------------------------
     62916       1530       1544        272     111828     664841   Object Totals
         0          0         32          0          0          0   (incl. Generated)
         2          0          2          5          4          0   (incl. Padding)

    ----------------------------------------------------------------------

      Code (inc. data)   RO Data    RW Data    ZI Data      Debug   Library Member Name

        26          0          8          0          0         68   net_addr4.o
      1712        130          0          8          0       1024   net_arp.o
       110          4          0          0          0        228   net_common.o
      1020         94         28          4        136        696   net_eth.o
       436         34          0          0         16        308   net_icmp.o
      1034         80          8          0         12        816   net_ip.o
       460         52          4          0         36        556   net_mem.o
       224         48          8          0        108        288   net_sys.o
      3660        126        109         48          0       1844   net_tcp.o
       268         24          0          1          0       4128   hal_cm.o
       384         28          0          0          0        796   hal_cm4.o
      2064        226          0          8          0      44832   rt_cmsis.o
       272         18          0          0          0       2470   rt_event.o
       530         34          0          0         48       7765   rt_list.o
       550         10          0          0          0       3661   rt_mailbox.o
       128          0          0          0          0       1821   rt_membox.o
       128          0          0          0          0       2203   rt_memory.o
       336         12          0          0          0       1969   rt_mutex.o
        96         22          0          8          0       1230   rt_robin.o
       174         10          0          0          0       2288   rt_semaphore.o
       256         44          0          8          0       2885   rt_system.o
      1200        174          0          8         52       9253   rt_task.o
         6          0          0          4          0        668   rt_time.o
         4          4          0          0          0        200   svc_table.o
      1514        150          0          0          0       1740   usbd_cdc.o
      4022        216          0          0          0       2652   usbd_core.o
       364         26          0          0          0        168   usbd_core_cdc.o
        86          0          0          0          0          0   __dczerorl2.o
         0          0          0          0          0          0   entry.o
         0          0          0          0          0          0   entry10a.o
         0          0          0          0          0          0   entry11a.o
         8          4          0          0          0          0   entry2.o
         4          0          0          0          0          0   entry5.o
         0          0          0          0          0          0   entry7b.o
         0          0          0          0          0          0   entry8b.o
        30          0          0          0          0          0   handlers.o
        36          8          0          0          0         68   init.o
        30          0          0          0          0         68   llshl.o
        32          0          0          0          0         68   llushr.o
        36          0          0          0          0         68   memcpya.o
        36          0          0          0          0        108   memseta.o
        14          0          0          0          0         68   strlen.o
        98          0          0          0          0         92   uldiv.o

    ----------------------------------------------------------------------
     21432       1578        168        100        408      97097   Library Totals
        44          0          3          3          0          0   (incl. Padding)

    ----------------------------------------------------------------------

      Code (inc. data)   RO Data    RW Data    ZI Data      Debug   Library Name

      8682        568        165         60        308       5828   Net_CM3_L.lib
      6396        606          0         37        100      86169   RTX_CM4.lib
      5900        392          0          0          0       4560   USB_CM3_L.lib
       410         12          0          0          0        540   mc_w.l

    ----------------------------------------------------------------------
     21432       1578        168        100        408      97097   Library Totals

    ----------------------------------------------------------------------

==============================================================================


      Code (inc. data)   RO Data    RW Data    ZI Data      Debug   

     84348       3108       1712        372     112236     739862   Grand Totals
     84348       3108       1712        128     112236     739862   ELF Image Totals (compressed)
     84348       3108       1712        128          0          0   ROM Totals

==============================================================================

    Total RO  Size (Code + RO Data)                86060 (  84.04kB)
    Total RW  Size (RW Data + ZI Data)            112608 ( 109.97kB)
    Total ROM Size (Code + RO Data + RW Data)      86188 (  84.17kB)

==============================================================================

